ccopy_reg
_reconstructor
p0
(cdeap.tools.support
Logbook
p1
c__builtin__
list
p2
(lp3
(dp4
S'hv|spread|igd|frontier#|valid#'
p5
(F0.197
F0.629
F0.469
I77
I0
tp6
sS'timestamp'
p7
F11.468507051467896
sS'evals'
p8
I1000
sS'gen'
p9
I0
sa(dp10
g5
(F0.197
F0.583
F0.47
I86
I0
tp11
sg7
F26.764124155044556
sg8
I1000
sg9
I1
sa(dp12
g5
(F0.201
F0.619
F0.476
I122
I0
tp13
sg7
F41.14993906021118
sg8
I1000
sg9
I2
sa(dp14
g5
(F0.218
F0.65
F0.481
I134
I0
tp15
sg7
F55.776116132736206
sg8
I1000
sg9
I3
sa(dp16
g5
(F0.219
F0.707
F0.477
I141
I0
tp17
sg7
F70.06620001792908
sg8
I1000
sg9
I4
sa(dp18
g5
(F0.223
F0.685
F0.479
I156
I0
tp19
sg7
F84.26410293579102
sg8
I1000
sg9
I5
sa(dp20
g5
(F0.228
F0.643
F0.485
I161
I0
tp21
sg7
F98.34427809715271
sg8
I1000
sg9
I6
sa(dp22
g5
(F0.229
F0.625
F0.491
I162
I0
tp23
sg7
F111.9793131351471
sg8
I1000
sg9
I7
sa(dp24
g5
(F0.23
F0.679
F0.501
I152
I0
tp25
sg7
F126.07653212547302
sg8
I1000
sg9
I8
sa(dp26
g5
(F0.233
F0.761
F0.501
I170
I0
tp27
sg7
F139.8359191417694
sg8
I1000
sg9
I9
sa(dp28
g5
(F0.236
F0.691
F0.5
I174
I0
tp29
sg7
F153.78754305839539
sg8
I1000
sg9
I10
sa(dp30
g5
(F0.24
F0.65
F0.512
I175
I0
tp31
sg7
F167.85555815696716
sg8
I1000
sg9
I11
sa(dp32
g5
(F0.243
F0.671
F0.51
I193
I0
tp33
sg7
F182.14469599723816
sg8
I1000
sg9
I12
sa(dp34
g5
(F0.244
F0.665
F0.516
I208
I0
tp35
sg7
F196.6425290107727
sg8
I1000
sg9
I13
sa(dp36
g5
(F0.247
F0.665
F0.511
I200
I0
tp37
sg7
F210.9803991317749
sg8
I1000
sg9
I14
sa(dp38
g5
(F0.251
F0.711
F0.518
I218
I0
tp39
sg7
F225.32530808448792
sg8
I1000
sg9
I15
sa(dp40
g5
(F0.251
F0.65
F0.515
I192
I0
tp41
sg7
F239.4191861152649
sg8
I1000
sg9
I16
sa(dp42
g5
(F0.255
F0.659
F0.511
I199
I0
tp43
sg7
F254.09986805915833
sg8
I1000
sg9
I17
sa(dp44
g5
(F0.255
F0.707
F0.513
I216
I0
tp45
sg7
F268.8096809387207
sg8
I1000
sg9
I18
sa(dp46
g5
(F0.258
F0.649
F0.514
I203
I0
tp47
sg7
F283.5029089450836
sg8
I1000
sg9
I19
sa(dp48
g5
(F0.258
F0.641
F0.51
I212
I0
tp49
sg7
F297.77513003349304
sg8
I1000
sg9
I20
sa(dp50
g5
(F0.259
F0.63
F0.516
I226
I0
tp51
sg7
F312.31845808029175
sg8
I1000
sg9
I21
sa(dp52
g5
(F0.259
F0.639
F0.511
I226
I0
tp53
sg7
F326.842059135437
sg8
I1000
sg9
I22
sa(dp54
g5
(F0.265
F0.665
F0.513
I228
I0
tp55
sg7
F341.5636479854584
sg8
I1000
sg9
I23
sa(dp56
g5
(F0.265
F0.652
F0.518
I244
I0
tp57
sg7
F356.425763130188
sg8
I1000
sg9
I24
sa(dp58
g5
(F0.265
F0.69
F0.52
I256
I0
tp59
sg7
F371.1322810649872
sg8
I1000
sg9
I25
sa(dp60
g5
(F0.269
F0.667
F0.532
I254
I0
tp61
sg7
F385.8836290836334
sg8
I1000
sg9
I26
sa(dp62
g5
(F0.27
F0.657
F0.533
I245
I0
tp63
sg7
F400.62855195999146
sg8
I1000
sg9
I27
sa(dp64
g5
(F0.271
F0.663
F0.537
I231
I0
tp65
sg7
F415.42698311805725
sg8
I1000
sg9
I28
sa(dp66
g5
(F0.272
F0.692
F0.538
I248
I0
tp67
sg7
F430.1578130722046
sg8
I1000
sg9
I29
sa(dp68
g5
(F0.275
F0.677
F0.527
I270
I0
tp69
sg7
F444.9188640117645
sg8
I1000
sg9
I30
sa(dp70
g5
(F0.275
F0.682
F0.527
I286
I0
tp71
sg7
F460.00061893463135
sg8
I1000
sg9
I31
sa(dp72
g5
(F0.28
F0.703
F0.524
I282
I0
tp73
sg7
F475.1555941104889
sg8
I1000
sg9
I32
sa(dp74
g5
(F0.28
F0.739
F0.523
I290
I0
tp75
sg7
F490.49861097335815
sg8
I1000
sg9
I33
sa(dp76
g5
(F0.281
F0.699
F0.522
I275
I0
tp77
sg7
F505.8399660587311
sg8
I1000
sg9
I34
sa(dp78
g5
(F0.281
F0.705
F0.53
I275
I0
tp79
sg7
F521.3529150485992
sg8
I1000
sg9
I35
sa(dp80
g5
(F0.281
F0.699
F0.538
I270
I0
tp81
sg7
F536.8858029842377
sg8
I1000
sg9
I36
sa(dp82
g5
(F0.284
F0.651
F0.533
I261
I0
tp83
sg7
F552.3877761363983
sg8
I1000
sg9
I37
sa(dp84
g5
(F0.286
F0.677
F0.528
I251
I0
tp85
sg7
F567.756795167923
sg8
I1000
sg9
I38
sa(dp86
g5
(F0.286
F0.665
F0.531
I259
I0
tp87
sg7
F583.2358200550079
sg8
I1000
sg9
I39
sa(dp88
g5
(F0.289
F0.682
F0.523
I258
I0
tp89
sg7
F598.898873090744
sg8
I1000
sg9
I40
sa(dp90
g5
(F0.289
F0.668
F0.522
I274
I0
tp91
sg7
F614.5579349994659
sg8
I1000
sg9
I41
sa(dp92
g5
(F0.289
F0.681
F0.527
I283
I0
tp93
sg7
F631.6967520713806
sg8
I1000
sg9
I42
sa(dp94
g5
(F0.29
F0.672
F0.532
I281
I0
tp95
sg7
F647.4718191623688
sg8
I1000
sg9
I43
sa(dp96
g5
(F0.29
F0.663
F0.527
I294
I0
tp97
sg7
F663.5472900867462
sg8
I1000
sg9
I44
sa(dp98
g5
(F0.29
F0.669
F0.521
I301
I0
tp99
sg7
F679.6482031345367
sg8
I1000
sg9
I45
sa(dp100
g5
(F0.291
F0.673
F0.527
I307
I0
tp101
sg7
F695.7881281375885
sg8
I1000
sg9
I46
sa(dp102
g5
(F0.291
F0.694
F0.527
I308
I0
tp103
sg7
F711.57546210289
sg8
I1000
sg9
I47
sa(dp104
g5
(F0.291
F0.694
F0.529
I311
I0
tp105
sg7
F727.2652220726013
sg8
I1000
sg9
I48
sa(dp106
g5
(F0.294
F0.723
F0.53
I323
I0
tp107
sg7
F743.0128860473633
sg8
I1000
sg9
I49
sa(dp108
g5
(F0.296
F0.703
F0.532
I341
I0
tp109
sg7
F758.7551219463348
sg8
I1000
sg9
I50
sa(dp110
g5
(F0.296
F0.686
F0.538
I336
I0
tp111
sg7
F774.3868601322174
sg8
I1000
sg9
I51
sa(dp112
g5
(F0.297
F0.69
F0.536
I347
I0
tp113
sg7
F790.2198700904846
sg8
I1000
sg9
I52
sa(dp114
g5
(F0.297
F0.713
F0.541
I345
I0
tp115
sg7
F805.9870619773865
sg8
I1000
sg9
I53
sa(dp116
g5
(F0.297
F0.687
F0.545
I337
I0
tp117
sg7
F821.7153010368347
sg8
I1000
sg9
I54
sa(dp118
g5
(F0.307
F0.694
F0.55
I342
I0
tp119
sg7
F837.3841171264648
sg8
I1000
sg9
I55
sa(dp120
g5
(F0.307
F0.656
F0.551
I329
I0
tp121
sg7
F853.1810619831085
sg8
I1000
sg9
I56
sa(dp122
g5
(F0.308
F0.697
F0.552
I345
I0
tp123
sg7
F869.1258709430695
sg8
I1000
sg9
I57
sa(dp124
g5
(F0.308
F0.716
F0.549
I354
I0
tp125
sg7
F885.067106962204
sg8
I1000
sg9
I58
sa(dp126
g5
(F0.308
F0.723
F0.545
I369
I0
tp127
sg7
F900.9107539653778
sg8
I1000
sg9
I59
sa(dp128
g5
(F0.308
F0.732
F0.548
I377
I0
tp129
sg7
F916.7634789943695
sg8
I1000
sg9
I60
sa(dp130
g5
(F0.309
F0.71
F0.548
I367
I0
tp131
sg7
F932.1518139839172
sg8
I1000
sg9
I61
sa(dp132
g5
(F0.309
F0.709
F0.551
I374
I0
tp133
sg7
F947.6583940982819
sg8
I1000
sg9
I62
sa(dp134
g5
(F0.311
F0.713
F0.55
I385
I0
tp135
sg7
F963.1848430633545
sg8
I1000
sg9
I63
sa(dp136
g5
(F0.312
F0.756
F0.55
I387
I0
tp137
sg7
F978.5948619842529
sg8
I1000
sg9
I64
sa(dp138
g5
(F0.312
F0.735
F0.553
I384
I0
tp139
sg7
F993.8023619651794
sg8
I1000
sg9
I65
sa(dp140
g5
(F0.312
F0.722
F0.55
I365
I0
tp141
sg7
F1009.0236830711365
sg8
I1000
sg9
I66
sa(dp142
g5
(F0.312
F0.719
F0.552
I362
I0
tp143
sg7
F1024.2161281108856
sg8
I1000
sg9
I67
sa(dp144
g5
(F0.312
F0.717
F0.551
I345
I0
tp145
sg7
F1039.2746081352234
sg8
I1000
sg9
I68
sa(dp146
g5
(F0.313
F0.703
F0.547
I334
I0
tp147
sg7
F1054.3295040130615
sg8
I1000
sg9
I69
sa(dp148
g5
(F0.313
F0.709
F0.553
I341
I0
tp149
sg7
F1069.6208009719849
sg8
I1000
sg9
I70
sa(dp150
g5
(F0.313
F0.724
F0.552
I349
I0
tp151
sg7
F1084.7774710655212
sg8
I1000
sg9
I71
sa(dp152
g5
(F0.313
F0.722
F0.557
I358
I0
tp153
sg7
F1099.7056291103363
sg8
I1000
sg9
I72
sa(dp154
g5
(F0.314
F0.736
F0.56
I369
I0
tp155
sg7
F1114.6195271015167
sg8
I1000
sg9
I73
sa(dp156
g5
(F0.314
F0.739
F0.571
I367
I0
tp157
sg7
F1129.6240170001984
sg8
I1000
sg9
I74
sa(dp158
g5
(F0.314
F0.756
F0.574
I364
I0
tp159
sg7
F1144.9652149677277
sg8
I1000
sg9
I75
sa(dp160
g5
(F0.315
F0.764
F0.571
I374
I0
tp161
sg7
F1160.1875360012054
sg8
I1000
sg9
I76
sa(dp162
g5
(F0.317
F0.73
F0.564
I348
I0
tp163
sg7
F1175.0176270008087
sg8
I1000
sg9
I77
sa(dp164
g5
(F0.317
F0.758
F0.561
I351
I0
tp165
sg7
F1189.8187651634216
sg8
I1000
sg9
I78
sa(dp166
g5
(F0.317
F0.754
F0.559
I352
I0
tp167
sg7
F1204.5458681583405
sg8
I1000
sg9
I79
sa(dp168
g5
(F0.317
F0.765
F0.562
I359
I0
tp169
sg7
F1219.3554379940033
sg8
I1000
sg9
I80
sa(dp170
g5
(F0.317
F0.755
F0.566
I376
I0
tp171
sg7
F1235.66801404953
sg8
I1000
sg9
I81
sa(dp172
g5
(F0.318
F0.753
F0.569
I377
I0
tp173
sg7
F1250.6086959838867
sg8
I1000
sg9
I82
sa(dp174
g5
(F0.318
F0.741
F0.567
I380
I0
tp175
sg7
F1265.6763610839844
sg8
I1000
sg9
I83
sa(dp176
g5
(F0.318
F0.74
F0.562
I383
I0
tp177
sg7
F1280.914628982544
sg8
I1000
sg9
I84
sa(dp178
g5
(F0.318
F0.743
F0.561
I380
I0
tp179
sg7
F1296.071452140808
sg8
I1000
sg9
I85
sa(dp180
g5
(F0.318
F0.753
F0.557
I383
I0
tp181
sg7
F1311.1309671401978
sg8
I1000
sg9
I86
sa(dp182
g5
(F0.319
F0.766
F0.56
I392
I0
tp183
sg7
F1326.147614955902
sg8
I1000
sg9
I87
sa(dp184
g5
(F0.319
F0.751
F0.562
I395
I0
tp185
sg7
F1341.0819990634918
sg8
I1000
sg9
I88
sa(dp186
g5
(F0.322
F0.767
F0.56
I404
I0
tp187
sg7
F1356.1727130413055
sg8
I1000
sg9
I89
sa(dp188
g5
(F0.322
F0.783
F0.563
I419
I0
tp189
sg7
F1371.4427411556244
sg8
I1000
sg9
I90
sa(dp190
g5
(F0.322
F0.775
F0.557
I410
I0
tp191
sg7
F1386.6470129489899
sg8
I1000
sg9
I91
sa(dp192
g5
(F0.322
F0.794
F0.556
I408
I0
tp193
sg7
F1401.779324054718
sg8
I1000
sg9
I92
sa(dp194
g5
(F0.323
F0.79
F0.555
I407
I0
tp195
sg7
F1416.8960609436035
sg8
I1000
sg9
I93
sa(dp196
g5
(F0.323
F0.772
F0.562
I418
I0
tp197
sg7
F1432.1964581012726
sg8
I1000
sg9
I94
sa(dp198
g5
(F0.323
F0.756
F0.558
I415
I0
tp199
sg7
F1447.5327081680298
sg8
I1000
sg9
I95
sa(dp200
g5
(F0.323
F0.773
F0.556
I421
I0
tp201
sg7
F1462.7447710037231
sg8
I1000
sg9
I96
sa(dp202
g5
(F0.323
F0.803
F0.554
I421
I0
tp203
sg7
F1478.0862171649933
sg8
I1000
sg9
I97
sa(dp204
g5
(F0.323
F0.779
F0.554
I425
I0
tp205
sg7
F1493.5984621047974
sg8
I1000
sg9
I98
sa(dp206
g5
(F0.323
F0.79
F0.559
I425
I0
tp207
sg7
F1508.9618790149689
sg8
I1000
sg9
I99
sa(dp208
g5
(F0.323
F0.801
F0.56
I419
I0
tp209
sg7
F1524.3893899917603
sg8
I1000
sg9
I100
sa(dp210
g5
(F0.323
F0.775
F0.552
I416
I0
tp211
sg7
F1539.683839082718
sg8
I1000
sg9
I101
sa(dp212
g5
(F0.324
F0.796
F0.55
I420
I0
tp213
sg7
F1555.037171125412
sg8
I1000
sg9
I102
sa(dp214
g5
(F0.324
F0.78
F0.553
I421
I0
tp215
sg7
F1570.5056419372559
sg8
I1000
sg9
I103
sa(dp216
g5
(F0.324
F0.811
F0.552
I431
I0
tp217
sg7
F1585.7867951393127
sg8
I1000
sg9
I104
sa(dp218
g5
(F0.324
F0.807
F0.553
I435
I0
tp219
sg7
F1601.2140951156616
sg8
I1000
sg9
I105
sa(dp220
g5
(F0.324
F0.804
F0.551
I434
I0
tp221
sg7
F1616.710438966751
sg8
I1000
sg9
I106
sa(dp222
g5
(F0.324
F0.823
F0.551
I448
I0
tp223
sg7
F1632.137598991394
sg8
I1000
sg9
I107
sa(dp224
g5
(F0.325
F0.823
F0.549
I454
I0
tp225
sg7
F1647.840898990631
sg8
I1000
sg9
I108
sa(dp226
g5
(F0.325
F0.842
F0.547
I450
I0
tp227
sg7
F1663.234323978424
sg8
I1000
sg9
I109
sa(dp228
g5
(F0.325
F0.848
F0.548
I463
I0
tp229
sg7
F1678.6433820724487
sg8
I1000
sg9
I110
sa(dp230
g5
(F0.325
F0.861
F0.556
I454
I0
tp231
sg7
F1693.9228911399841
sg8
I1000
sg9
I111
sa(dp232
g5
(F0.325
F0.829
F0.562
I447
I0
tp233
sg7
F1709.0981860160828
sg8
I1000
sg9
I112
sa(dp234
g5
(F0.325
F0.822
F0.563
I441
I0
tp235
sg7
F1724.3776609897614
sg8
I1000
sg9
I113
sa(dp236
g5
(F0.325
F0.826
F0.565
I443
I0
tp237
sg7
F1739.52143907547
sg8
I1000
sg9
I114
sa(dp238
g5
(F0.325
F0.847
F0.561
I445
I0
tp239
sg7
F1754.841432094574
sg8
I1000
sg9
I115
sa(dp240
g5
(F0.325
F0.84
F0.564
I453
I0
tp241
sg7
F1770.1233639717102
sg8
I1000
sg9
I116
sa(dp242
g5
(F0.326
F0.841
F0.562
I455
I0
tp243
sg7
F1785.3647711277008
sg8
I1000
sg9
I117
sa(dp244
g5
(F0.326
F0.863
F0.562
I460
I0
tp245
sg7
F1800.5162439346313
sg8
I1000
sg9
I118
sa(dp246
g5
(F0.326
F0.847
F0.561
I460
I0
tp247
sg7
F1815.727026939392
sg8
I1000
sg9
I119
sa(dp248
g5
(F0.326
F0.853
F0.563
I466
I0
tp249
sg7
F1831.0094690322876
sg8
I1000
sg9
I120
sa(dp250
g5
(F0.326
F0.833
F0.563
I465
I0
tp251
sg7
F1847.5561130046844
sg8
I1000
sg9
I121
sa(dp252
g5
(F0.326
F0.853
F0.559
I467
I0
tp253
sg7
F1862.7666189670563
sg8
I1000
sg9
I122
sa(dp254
g5
(F0.326
F0.836
F0.553
I472
I0
tp255
sg7
F1877.8634309768677
sg8
I1000
sg9
I123
sa(dp256
g5
(F0.327
F0.845
F0.553
I489
I0
tp257
sg7
F1893.2457690238953
sg8
I1000
sg9
I124
sa(dp258
g5
(F0.327
F0.818
F0.553
I473
I0
tp259
sg7
F1908.5066030025482
sg8
I1000
sg9
I125
sa(dp260
g5
(F0.327
F0.821
F0.559
I464
I0
tp261
sg7
F1923.8678879737854
sg8
I1000
sg9
I126
sa(dp262
g5
(F0.329
F0.836
F0.559
I474
I0
tp263
sg7
F1939.323693037033
sg8
I1000
sg9
I127
sa(dp264
g5
(F0.329
F0.821
F0.557
I472
I0
tp265
sg7
F1954.8642139434814
sg8
I1000
sg9
I128
sa(dp266
g5
(F0.33
F0.847
F0.557
I477
I0
tp267
sg7
F1970.4076039791107
sg8
I1000
sg9
I129
sa(dp268
g5
(F0.33
F0.856
F0.555
I485
I0
tp269
sg7
F1985.9448521137238
sg8
I1000
sg9
I130
sa(dp270
g5
(F0.33
F0.85
F0.557
I484
I0
tp271
sg7
F2001.4182801246643
sg8
I1000
sg9
I131
sa(dp272
g5
(F0.33
F0.855
F0.551
I489
I0
tp273
sg7
F2016.923527956009
sg8
I1000
sg9
I132
sa(dp274
g5
(F0.33
F0.842
F0.556
I483
I0
tp275
sg7
F2032.427896976471
sg8
I1000
sg9
I133
sa(dp276
g5
(F0.331
F0.848
F0.556
I494
I0
tp277
sg7
F2047.7448389530182
sg8
I1000
sg9
I134
sa(dp278
g5
(F0.331
F0.841
F0.554
I493
I0
tp279
sg7
F2063.370841026306
sg8
I1000
sg9
I135
sa(dp280
g5
(F0.331
F0.845
F0.554
I504
I0
tp281
sg7
F2079.006122112274
sg8
I1000
sg9
I136
sa(dp282
g5
(F0.331
F0.835
F0.558
I497
I0
tp283
sg7
F2094.6965610980988
sg8
I1000
sg9
I137
sa(dp284
g5
(F0.331
F0.84
F0.561
I491
I0
tp285
sg7
F2110.469568014145
sg8
I1000
sg9
I138
sa(dp286
g5
(F0.331
F0.841
F0.561
I494
I0
tp287
sg7
F2126.3362650871277
sg8
I1000
sg9
I139
sa(dp288
g5
(F0.331
F0.835
F0.558
I498
I0
tp289
sg7
F2142.2541670799255
sg8
I1000
sg9
I140
sa(dp290
g5
(F0.331
F0.833
F0.556
I496
I0
tp291
sg7
F2157.9754271507263
sg8
I1000
sg9
I141
sa(dp292
g5
(F0.331
F0.841
F0.557
I502
I0
tp293
sg7
F2173.834769964218
sg8
I1000
sg9
I142
sa(dp294
g5
(F0.332
F0.855
F0.557
I516
I0
tp295
sg7
F2189.778378009796
sg8
I1000
sg9
I143
sa(dp296
g5
(F0.332
F0.865
F0.555
I523
I0
tp297
sg7
F2205.7915370464325
sg8
I1000
sg9
I144
sa(dp298
g5
(F0.334
F0.874
F0.554
I533
I0
tp299
sg7
F2221.827337026596
sg8
I1000
sg9
I145
sa(dp300
g5
(F0.334
F0.868
F0.55
I526
I0
tp301
sg7
F2238.1136610507965
sg8
I1000
sg9
I146
sa(dp302
g5
(F0.334
F0.855
F0.549
I526
I0
tp303
sg7
F2254.2366559505463
sg8
I1000
sg9
I147
sa(dp304
g5
(F0.334
F0.863
F0.548
I528
I0
tp305
sg7
F2270.4010701179504
sg8
I1000
sg9
I148
sa(dp306
g5
(F0.334
F0.873
F0.544
I534
I0
tp307
sg7
F2286.3984949588776
sg8
I1000
sg9
I149
sa(dp308
g5
(F0.334
F0.878
F0.548
I543
I0
tp309
sg7
F2302.554893016815
sg8
I1000
sg9
I150
sa(dp310
g5
(F0.334
F0.879
F0.548
I542
I0
tp311
sg7
F2318.5326931476593
sg8
I1000
sg9
I151
sa(dp312
g5
(F0.334
F0.862
F0.543
I532
I0
tp313
sg7
F2334.60413312912
sg8
I1000
sg9
I152
sa(dp314
g5
(F0.334
F0.848
F0.539
I532
I0
tp315
sg7
F2350.6262550354004
sg8
I1000
sg9
I153
sa(dp316
g5
(F0.334
F0.833
F0.54
I529
I0
tp317
sg7
F2366.6350791454315
sg8
I1000
sg9
I154
sa(dp318
g5
(F0.334
F0.831
F0.541
I526
I0
tp319
sg7
F2382.7637701034546
sg8
I1000
sg9
I155
sa(dp320
g5
(F0.334
F0.833
F0.542
I522
I0
tp321
sg7
F2398.890778064728
sg8
I1000
sg9
I156
sa(dp322
g5
(F0.334
F0.837
F0.543
I528
I0
tp323
sg7
F2415.09068608284
sg8
I1000
sg9
I157
sa(dp324
g5
(F0.334
F0.838
F0.546
I531
I0
tp325
sg7
F2431.334444999695
sg8
I1000
sg9
I158
sa(dp326
g5
(F0.335
F0.842
F0.548
I528
I0
tp327
sg7
F2449.4623789787292
sg8
I1000
sg9
I159
sa(dp328
g5
(F0.335
F0.846
F0.546
I537
I0
tp329
sg7
F2465.6863191127777
sg8
I1000
sg9
I160
sa(dp330
g5
(F0.335
F0.846
F0.544
I544
I0
tp331
sg7
F2481.838637113571
sg8
I1000
sg9
I161
sa(dp332
g5
(F0.335
F0.837
F0.541
I540
I0
tp333
sg7
F2497.849086999893
sg8
I1000
sg9
I162
sa(dp334
g5
(F0.34
F0.837
F0.543
I540
I0
tp335
sg7
F2513.956768989563
sg8
I1000
sg9
I163
sa(dp336
g5
(F0.34
F0.841
F0.542
I540
I0
tp337
sg7
F2530.0477571487427
sg8
I1000
sg9
I164
sa(dp338
g5
(F0.34
F0.84
F0.547
I543
I0
tp339
sg7
F2546.1759231090546
sg8
I1000
sg9
I165
sa(dp340
g5
(F0.34
F0.834
F0.546
I549
I0
tp341
sg7
F2562.221400976181
sg8
I1000
sg9
I166
sa(dp342
g5
(F0.34
F0.844
F0.548
I554
I0
tp343
sg7
F2578.400011062622
sg8
I1000
sg9
I167
sa(dp344
g5
(F0.34
F0.831
F0.553
I557
I0
tp345
sg7
F2594.52667093277
sg8
I1000
sg9
I168
sa(dp346
g5
(F0.34
F0.841
F0.555
I557
I0
tp347
sg7
F2610.7546679973602
sg8
I1000
sg9
I169
sa(dp348
g5
(F0.34
F0.847
F0.555
I565
I0
tp349
sg7
F2626.9838559627533
sg8
I1000
sg9
I170
sa(dp350
g5
(F0.341
F0.844
F0.557
I554
I0
tp351
sg7
F2643.297466993332
sg8
I1000
sg9
I171
sa(dp352
g5
(F0.341
F0.838
F0.558
I559
I0
tp353
sg7
F2659.850795030594
sg8
I1000
sg9
I172
sa(dp354
g5
(F0.341
F0.832
F0.557
I572
I0
tp355
sg7
F2676.343726158142
sg8
I1000
sg9
I173
sa(dp356
g5
(F0.341
F0.844
F0.558
I589
I0
tp357
sg7
F2693.0317299365997
sg8
I1000
sg9
I174
sa(dp358
g5
(F0.341
F0.851
F0.56
I592
I0
tp359
sg7
F2709.6195011138916
sg8
I1000
sg9
I175
sa(dp360
g5
(F0.341
F0.84
F0.553
I587
I0
tp361
sg7
F2726.3779380321503
sg8
I1000
sg9
I176
sa(dp362
g5
(F0.341
F0.837
F0.559
I580
I0
tp363
sg7
F2742.9716091156006
sg8
I1000
sg9
I177
sa(dp364
g5
(F0.341
F0.845
F0.56
I583
I0
tp365
sg7
F2759.5807609558105
sg8
I1000
sg9
I178
sa(dp366
g5
(F0.341
F0.844
F0.562
I580
I0
tp367
sg7
F2776.2001011371613
sg8
I1000
sg9
I179
sa(dp368
g5
(F0.341
F0.81
F0.554
I549
I0
tp369
sg7
F2792.580410003662
sg8
I1000
sg9
I180
sa(dp370
g5
(F0.341
F0.814
F0.554
I550
I0
tp371
sg7
F2809.1699011325836
sg8
I1000
sg9
I181
sa(dp372
g5
(F0.341
F0.825
F0.553
I558
I0
tp373
sg7
F2825.822606086731
sg8
I1000
sg9
I182
sa(dp374
g5
(F0.342
F0.823
F0.553
I556
I0
tp375
sg7
F2842.6443071365356
sg8
I1000
sg9
I183
sa(dp376
g5
(F0.342
F0.821
F0.558
I548
I0
tp377
sg7
F2859.3636100292206
sg8
I1000
sg9
I184
sa(dp378
g5
(F0.342
F0.823
F0.555
I551
I0
tp379
sg7
F2876.070878982544
sg8
I1000
sg9
I185
sa(dp380
g5
(F0.342
F0.825
F0.554
I551
I0
tp381
sg7
F2892.711998939514
sg8
I1000
sg9
I186
sa(dp382
g5
(F0.342
F0.817
F0.557
I547
I0
tp383
sg7
F2909.4307839870453
sg8
I1000
sg9
I187
sa(dp384
g5
(F0.342
F0.814
F0.558
I545
I0
tp385
sg7
F2926.183741092682
sg8
I1000
sg9
I188
sa(dp386
g5
(F0.342
F0.803
F0.558
I542
I0
tp387
sg7
F2943.0396649837494
sg8
I1000
sg9
I189
sa(dp388
g5
(F0.342
F0.802
F0.559
I547
I0
tp389
sg7
F2959.873419046402
sg8
I1000
sg9
I190
sa(dp390
g5
(F0.342
F0.803
F0.559
I553
I0
tp391
sg7
F2976.8790860176086
sg8
I1000
sg9
I191
sa(dp392
g5
(F0.342
F0.805
F0.558
I555
I0
tp393
sg7
F2993.855530023575
sg8
I1000
sg9
I192
sa(dp394
g5
(F0.342
F0.798
F0.557
I560
I0
tp395
sg7
F3010.763067960739
sg8
I1000
sg9
I193
sa(dp396
g5
(F0.342
F0.79
F0.558
I572
I0
tp397
sg7
F3027.567090988159
sg8
I1000
sg9
I194
sa(dp398
g5
(F0.345
F0.777
F0.561
I572
I0
tp399
sg7
F3044.4986040592194
sg8
I1000
sg9
I195
sa(dp400
g5
(F0.345
F0.768
F0.566
I567
I0
tp401
sg7
F3062.968691110611
sg8
I1000
sg9
I196
sa(dp402
g5
(F0.345
F0.767
F0.565
I566
I0
tp403
sg7
F3079.8322031497955
sg8
I1000
sg9
I197
sa(dp404
g5
(F0.345
F0.764
F0.562
I562
I0
tp405
sg7
F3096.908946990967
sg8
I1000
sg9
I198
sa(dp406
g5
(F0.345
F0.771
F0.562
I562
I0
tp407
sg7
F3113.72234916687
sg8
I1000
sg9
I199
sa(dp408
g5
(F0.345
F0.773
F0.561
I568
I0
tp409
sg7
F3130.6988961696625
sg8
I1000
sg9
I200
sa(dp410
g5
(F0.345
F0.781
F0.559
I572
I0
tp411
sg7
F3147.712765932083
sg8
I1000
sg9
I201
sa(dp412
g5
(F0.345
F0.776
F0.558
I570
I0
tp413
sg7
F3164.636172056198
sg8
I1000
sg9
I202
sa(dp414
g5
(F0.345
F0.778
F0.559
I568
I0
tp415
sg7
F3181.5080239772797
sg8
I1000
sg9
I203
sa(dp416
g5
(F0.345
F0.783
F0.558
I578
I0
tp417
sg7
F3198.4549350738525
sg8
I1000
sg9
I204
sa(dp418
g5
(F0.345
F0.777
F0.557
I581
I0
tp419
sg7
F3215.5164909362793
sg8
I1000
sg9
I205
sa(dp420
g5
(F0.345
F0.777
F0.556
I585
I0
tp421
sg7
F3232.4271669387817
sg8
I1000
sg9
I206
sa(dp422
g5
(F0.346
F0.776
F0.553
I587
I0
tp423
sg7
F3249.68052816391
sg8
I1000
sg9
I207
sa(dp424
g5
(F0.346
F0.78
F0.553
I591
I0
tp425
sg7
F3266.8515050411224
sg8
I1000
sg9
I208
sa(dp426
g5
(F0.346
F0.774
F0.549
I588
I0
tp427
sg7
F3283.9469690322876
sg8
I1000
sg9
I209
sa(dp428
g5
(F0.346
F0.783
F0.547
I586
I0
tp429
sg7
F3301.020301103592
sg8
I1000
sg9
I210
sa(dp430
g5
(F0.346
F0.783
F0.548
I593
I0
tp431
sg7
F3318.1161830425262
sg8
I1000
sg9
I211
sa(dp432
g5
(F0.346
F0.794
F0.547
I602
I0
tp433
sg7
F3335.298455953598
sg8
I1000
sg9
I212
sa(dp434
g5
(F0.348
F0.792
F0.553
I597
I0
tp435
sg7
F3352.341542005539
sg8
I1000
sg9
I213
sa(dp436
g5
(F0.348
F0.793
F0.553
I606
I0
tp437
sg7
F3369.5842361450195
sg8
I1000
sg9
I214
sa(dp438
g5
(F0.348
F0.783
F0.556
I607
I0
tp439
sg7
F3386.7543449401855
sg8
I1000
sg9
I215
sa(dp440
g5
(F0.348
F0.787
F0.561
I604
I0
tp441
sg7
F3403.870605945587
sg8
I1000
sg9
I216
sa(dp442
g5
(F0.348
F0.805
F0.559
I608
I0
tp443
sg7
F3421.0229630470276
sg8
I1000
sg9
I217
sa(dp444
g5
(F0.348
F0.791
F0.559
I591
I0
tp445
sg7
F3438.149399995804
sg8
I1000
sg9
I218
sa(dp446
g5
(F0.348
F0.786
F0.559
I594
I0
tp447
sg7
F3455.3835141658783
sg8
I1000
sg9
I219
sa(dp448
g5
(F0.348
F0.799
F0.555
I591
I0
tp449
sg7
F3472.5435769557953
sg8
I1000
sg9
I220
sa(dp450
g5
(F0.348
F0.797
F0.554
I587
I0
tp451
sg7
F3489.817305088043
sg8
I1000
sg9
I221
sa(dp452
g5
(F0.348
F0.794
F0.554
I592
I0
tp453
sg7
F3506.922919988632
sg8
I1000
sg9
I222
sa(dp454
g5
(F0.348
F0.784
F0.564
I574
I0
tp455
sg7
F3524.092041015625
sg8
I1000
sg9
I223
sa(dp456
g5
(F0.348
F0.783
F0.564
I581
I0
tp457
sg7
F3541.380257129669
sg8
I1000
sg9
I224
sa(dp458
g5
(F0.348
F0.793
F0.566
I585
I0
tp459
sg7
F3558.812572956085
sg8
I1000
sg9
I225
sa(dp460
g5
(F0.348
F0.793
F0.566
I584
I0
tp461
sg7
F3576.413355112076
sg8
I1000
sg9
I226
sa(dp462
g5
(F0.349
F0.781
F0.566
I585
I0
tp463
sg7
F3593.8314051628113
sg8
I1000
sg9
I227
sa(dp464
g5
(F0.349
F0.778
F0.568
I588
I0
tp465
sg7
F3611.353358030319
sg8
I1000
sg9
I228
sa(dp466
g5
(F0.349
F0.788
F0.568
I596
I0
tp467
sg7
F3628.9186160564423
sg8
I1000
sg9
I229
sa(dp468
g5
(F0.349
F0.785
F0.567
I600
I0
tp469
sg7
F3646.518289089203
sg8
I1000
sg9
I230
sa(dp470
g5
(F0.349
F0.79
F0.567
I596
I0
tp471
sg7
F3665.3175201416016
sg8
I1000
sg9
I231
sa(dp472
g5
(F0.349
F0.8
F0.568
I604
I0
tp473
sg7
F3682.896589040756
sg8
I1000
sg9
I232
sa(dp474
g5
(F0.349
F0.766
F0.569
I603
I0
tp475
sg7
F3700.3464641571045
sg8
I1000
sg9
I233
sa(dp476
g5
(F0.349
F0.776
F0.572
I608
I0
tp477
sg7
F3717.7386391162872
sg8
I1000
sg9
I234
sa(dp478
g5
(F0.349
F0.789
F0.569
I607
I0
tp479
sg7
F3735.176325082779
sg8
I1000
sg9
I235
sa(dp480
g5
(F0.349
F0.796
F0.57
I610
I0
tp481
sg7
F3752.602334022522
sg8
I1000
sg9
I236
sa(dp482
g5
(F0.349
F0.785
F0.574
I607
I0
tp483
sg7
F3769.884757041931
sg8
I1000
sg9
I237
sa(dp484
g5
(F0.349
F0.787
F0.572
I607
I0
tp485
sg7
F3787.357990026474
sg8
I1000
sg9
I238
sa(dp486
g5
(F0.349
F0.808
F0.567
I596
I0
tp487
sg7
F3804.833163022995
sg8
I1000
sg9
I239
sa(dp488
g5
(F0.35
F0.807
F0.565
I603
I0
tp489
sg7
F3822.4439210891724
sg8
I1000
sg9
I240
sa(dp490
g5
(F0.35
F0.813
F0.566
I616
I0
tp491
sg7
F3839.907747030258
sg8
I1000
sg9
I241
sa(dp492
g5
(F0.35
F0.811
F0.565
I617
I0
tp493
sg7
F3857.3264830112457
sg8
I1000
sg9
I242
sa(dp494
g5
(F0.35
F0.814
F0.563
I619
I0
tp495
sg7
F3874.8017041683197
sg8
I1000
sg9
I243
sa(dp496
g5
(F0.35
F0.807
F0.565
I616
I0
tp497
sg7
F3892.277641057968
sg8
I1000
sg9
I244
sa(dp498
g5
(F0.35
F0.823
F0.563
I615
I0
tp499
sg7
F3909.8775401115417
sg8
I1000
sg9
I245
sa(dp500
g5
(F0.35
F0.815
F0.562
I617
I0
tp501
sg7
F3927.419671058655
sg8
I1000
sg9
I246
sa(dp502
g5
(F0.35
F0.818
F0.561
I628
I0
tp503
sg7
F3944.7379059791565
sg8
I1000
sg9
I247
sa(dp504
g5
(F0.35
F0.82
F0.562
I638
I0
tp505
sg7
F3962.359605073929
sg8
I1000
sg9
I248
sa(dp506
g5
(F0.35
F0.822
F0.562
I641
I0
tp507
sg7
F3979.9853060245514
sg8
I1000
sg9
I249
sa(dp508
g5
(F0.35
F0.826
F0.561
I640
I0
tp509
sg7
F3997.5740921497345
sg8
I1000
sg9
I250
sa(dp510
g5
(F0.35
F0.831
F0.557
I635
I0
tp511
sg7
F4015.0566160678864
sg8
I1000
sg9
I251
sa(dp512
g5
(F0.35
F0.819
F0.56
I625
I0
tp513
sg7
F4032.502779006958
sg8
I1000
sg9
I252
sa(dp514
g5
(F0.35
F0.822
F0.56
I630
I0
tp515
sg7
F4049.924527168274
sg8
I1000
sg9
I253
sa(dp516
g5
(F0.35
F0.828
F0.562
I639
I0
tp517
sg7
F4067.383891105652
sg8
I1000
sg9
I254
sa(dp518
g5
(F0.35
F0.836
F0.562
I645
I0
tp519
sg7
F4085.057053089142
sg8
I1000
sg9
I255
sa(dp520
g5
(F0.35
F0.832
F0.561
I654
I0
tp521
sg7
F4102.51051402092
sg8
I1000
sg9
I256
sa(dp522
g5
(F0.35
F0.846
F0.558
I657
I0
tp523
sg7
F4120.092026948929
sg8
I1000
sg9
I257
sa(dp524
g5
(F0.35
F0.827
F0.554
I646
I0
tp525
sg7
F4137.591820001602
sg8
I1000
sg9
I258
sa(dp526
g5
(F0.35
F0.828
F0.555
I651
I0
tp527
sg7
F4155.0223779678345
sg8
I1000
sg9
I259
sa(dp528
g5
(F0.35
F0.828
F0.556
I656
I0
tp529
sg7
F4172.578006982803
sg8
I1000
sg9
I260
sa(dp530
g5
(F0.35
F0.824
F0.557
I651
I0
tp531
sg7
F4190.254600048065
sg8
I1000
sg9
I261
sa(dp532
g5
(F0.35
F0.82
F0.557
I652
I0
tp533
sg7
F4207.891605138779
sg8
I1000
sg9
I262
sa(dp534
g5
(F0.35
F0.827
F0.557
I661
I0
tp535
sg7
F4225.51384806633
sg8
I1000
sg9
I263
sa(dp536
g5
(F0.35
F0.822
F0.557
I655
I0
tp537
sg7
F4243.13712310791
sg8
I1000
sg9
I264
sa(dp538
g5
(F0.351
F0.823
F0.56
I651
I0
tp539
sg7
F4260.644484043121
sg8
I1000
sg9
I265
sa(dp540
g5
(F0.351
F0.81
F0.558
I645
I0
tp541
sg7
F4279.652806997299
sg8
I1000
sg9
I266
sa(dp542
g5
(F0.351
F0.841
F0.559
I660
I0
tp543
sg7
F4297.096534013748
sg8
I1000
sg9
I267
sa(dp544
g5
(F0.351
F0.838
F0.558
I661
I0
tp545
sg7
F4314.685523033142
sg8
I1000
sg9
I268
sa(dp546
g5
(F0.351
F0.839
F0.556
I661
I0
tp547
sg7
F4332.1648869514465
sg8
I1000
sg9
I269
sa(dp548
g5
(F0.351
F0.848
F0.557
I668
I0
tp549
sg7
F4349.797173976898
sg8
I1000
sg9
I270
sa(dp550
g5
(F0.351
F0.846
F0.559
I670
I0
tp551
sg7
F4367.332967996597
sg8
I1000
sg9
I271
sa(dp552
g5
(F0.351
F0.833
F0.559
I669
I0
tp553
sg7
F4384.942013025284
sg8
I1000
sg9
I272
sa(dp554
g5
(F0.351
F0.829
F0.56
I670
I0
tp555
sg7
F4402.670073032379
sg8
I1000
sg9
I273
sa(dp556
g5
(F0.353
F0.838
F0.562
I672
I0
tp557
sg7
F4420.320800065994
sg8
I1000
sg9
I274
sa(dp558
g5
(F0.353
F0.833
F0.561
I670
I0
tp559
sg7
F4438.13136100769
sg8
I1000
sg9
I275
sa(dp560
g5
(F0.353
F0.841
F0.562
I679
I0
tp561
sg7
F4455.845805168152
sg8
I1000
sg9
I276
sa(dp562
g5
(F0.353
F0.834
F0.567
I669
I0
tp563
sg7
F4473.383947134018
sg8
I1000
sg9
I277
sa(dp564
g5
(F0.353
F0.838
F0.567
I671
I0
tp565
sg7
F4491.139450073242
sg8
I1000
sg9
I278
sa(dp566
g5
(F0.353
F0.831
F0.57
I665
I0
tp567
sg7
F4508.60940694809
sg8
I1000
sg9
I279
sa(dp568
g5
(F0.353
F0.844
F0.569
I667
I0
tp569
sg7
F4526.351400136948
sg8
I1000
sg9
I280
sa(dp570
g5
(F0.353
F0.833
F0.572
I666
I0
tp571
sg7
F4543.939136981964
sg8
I1000
sg9
I281
sa(dp572
g5
(F0.353
F0.829
F0.573
I663
I0
tp573
sg7
F4561.49178814888
sg8
I1000
sg9
I282
sa(dp574
g5
(F0.354
F0.823
F0.575
I666
I0
tp575
sg7
F4578.983768939972
sg8
I1000
sg9
I283
sa(dp576
g5
(F0.354
F0.827
F0.576
I663
I0
tp577
sg7
F4596.568150997162
sg8
I1000
sg9
I284
sa(dp578
g5
(F0.354
F0.81
F0.576
I666
I0
tp579
sg7
F4614.169948101044
sg8
I1000
sg9
I285
sa(dp580
g5
(F0.354
F0.825
F0.579
I665
I0
tp581
sg7
F4631.66051197052
sg8
I1000
sg9
I286
sa(dp582
g5
(F0.354
F0.821
F0.579
I671
I0
tp583
sg7
F4649.296977996826
sg8
I1000
sg9
I287
sa(dp584
g5
(F0.354
F0.824
F0.582
I673
I0
tp585
sg7
F4666.9869430065155
sg8
I1000
sg9
I288
sa(dp586
g5
(F0.354
F0.821
F0.583
I667
I0
tp587
sg7
F4684.588210105896
sg8
I1000
sg9
I289
sa(dp588
g5
(F0.354
F0.821
F0.583
I662
I0
tp589
sg7
F4702.37674498558
sg8
I1000
sg9
I290
sa(dp590
g5
(F0.354
F0.818
F0.585
I659
I0
tp591
sg7
F4719.95782494545
sg8
I1000
sg9
I291
sa(dp592
g5
(F0.354
F0.823
F0.584
I661
I0
tp593
sg7
F4737.825552940369
sg8
I1000
sg9
I292
sa(dp594
g5
(F0.354
F0.82
F0.582
I667
I0
tp595
sg7
F4755.52829003334
sg8
I1000
sg9
I293
sa(dp596
g5
(F0.354
F0.819
F0.581
I665
I0
tp597
sg7
F4773.332402944565
sg8
I1000
sg9
I294
sa(dp598
g5
(F0.354
F0.825
F0.582
I666
I0
tp599
sg7
F4791.091989994049
sg8
I1000
sg9
I295
sa(dp600
g5
(F0.354
F0.825
F0.582
I673
I0
tp601
sg7
F4808.978852987289
sg8
I1000
sg9
I296
sa(dp602
g5
(F0.354
F0.836
F0.583
I670
I0
tp603
sg7
F4826.854045152664
sg8
I1000
sg9
I297
sa(dp604
g5
(F0.354
F0.84
F0.583
I681
I0
tp605
sg7
F4844.762799978256
sg8
I1000
sg9
I298
sa(dp606
g5
(F0.355
F0.837
F0.582
I686
I0
tp607
sg7
F4862.64217209816
sg8
I1000
sg9
I299
sa(dp608
g5
(F0.355
F0.838
F0.583
I688
I0
tp609
sg7
F4882.054021120071
sg8
I1000
sg9
I300
sa(dp610
g5
(F0.355
F0.83
F0.581
I689
I0
tp611
sg7
F4900.015599012375
sg8
I1000
sg9
I301
sa(dp612
g5
(F0.355
F0.829
F0.582
I691
I0
tp613
sg7
F4917.85680603981
sg8
I1000
sg9
I302
sa(dp614
g5
(F0.355
F0.826
F0.582
I694
I0
tp615
sg7
F4935.8842849731445
sg8
I1000
sg9
I303
sa(dp616
g5
(F0.355
F0.837
F0.581
I694
I0
tp617
sg7
F4953.941025972366
sg8
I1000
sg9
I304
sa(dp618
g5
(F0.355
F0.837
F0.58
I699
I0
tp619
sg7
F4972.007805109024
sg8
I1000
sg9
I305
sa(dp620
g5
(F0.356
F0.844
F0.58
I706
I0
tp621
sg7
F4990.137032985687
sg8
I1000
sg9
I306
sa(dp622
g5
(F0.356
F0.844
F0.581
I700
I0
tp623
sg7
F5008.1799149513245
sg8
I1000
sg9
I307
sa(dp624
g5
(F0.356
F0.855
F0.577
I701
I0
tp625
sg7
F5026.0864951610565
sg8
I1000
sg9
I308
sa(dp626
g5
(F0.356
F0.858
F0.577
I711
I0
tp627
sg7
F5043.957275152206
sg8
I1000
sg9
I309
sa(dp628
g5
(F0.356
F0.874
F0.577
I712
I0
tp629
sg7
F5062.08315205574
sg8
I1000
sg9
I310
sa(dp630
g5
(F0.356
F0.87
F0.577
I717
I0
tp631
sg7
F5080.155074119568
sg8
I1000
sg9
I311
sa(dp632
g5
(F0.356
F0.876
F0.575
I720
I0
tp633
sg7
F5098.218939065933
sg8
I1000
sg9
I312
sa(dp634
g5
(F0.356
F0.869
F0.574
I728
I0
tp635
sg7
F5116.290431022644
sg8
I1000
sg9
I313
sa(dp636
g5
(F0.356
F0.866
F0.574
I730
I0
tp637
sg7
F5134.564038038254
sg8
I1000
sg9
I314
sa(dp638
g5
(F0.356
F0.85
F0.575
I724
I0
tp639
sg7
F5152.672747135162
sg8
I1000
sg9
I315
sa(dp640
g5
(F0.356
F0.851
F0.578
I721
I0
tp641
sg7
F5170.78892993927
sg8
I1000
sg9
I316
sa(dp642
g5
(F0.356
F0.849
F0.576
I720
I0
tp643
sg7
F5188.953284978867
sg8
I1000
sg9
I317
sa(dp644
g5
(F0.356
F0.856
F0.578
I719
I0
tp645
sg7
F5207.199039936066
sg8
I1000
sg9
I318
sa(dp646
g5
(F0.358
F0.839
F0.577
I711
I0
tp647
sg7
F5225.2764501571655
sg8
I1000
sg9
I319
sa(dp648
g5
(F0.358
F0.838
F0.575
I706
I0
tp649
sg7
F5243.195737123489
sg8
I1000
sg9
I320
sa(dp650
g5
(F0.358
F0.832
F0.575
I704
I0
tp651
sg7
F5261.161924123764
sg8
I1000
sg9
I321
sa(dp652
g5
(F0.358
F0.836
F0.574
I699
I0
tp653
sg7
F5279.107251167297
sg8
I1000
sg9
I322
sa(dp654
g5
(F0.358
F0.84
F0.573
I704
I0
tp655
sg7
F5297.2262840271
sg8
I1000
sg9
I323
sa(dp656
g5
(F0.358
F0.843
F0.574
I706
I0
tp657
sg7
F5315.054738044739
sg8
I1000
sg9
I324
sa(dp658
g5
(F0.358
F0.84
F0.573
I711
I0
tp659
sg7
F5333.163071155548
sg8
I1000
sg9
I325
sa(dp660
g5
(F0.358
F0.837
F0.572
I704
I0
tp661
sg7
F5351.277626037598
sg8
I1000
sg9
I326
sa(dp662
g5
(F0.358
F0.843
F0.575
I711
I0
tp663
sg7
F5369.215451002121
sg8
I1000
sg9
I327
sa(dp664
g5
(F0.358
F0.849
F0.574
I717
I0
tp665
sg7
F5387.198954105377
sg8
I1000
sg9
I328
sa(dp666
g5
(F0.358
F0.844
F0.572
I713
I0
tp667
sg7
F5405.237447023392
sg8
I1000
sg9
I329
sa(dp668
g5
(F0.358
F0.849
F0.572
I718
I0
tp669
sg7
F5423.402631998062
sg8
I1000
sg9
I330
sa(dp670
g5
(F0.358
F0.846
F0.573
I722
I0
tp671
sg7
F5441.625545024872
sg8
I1000
sg9
I331
sa(dp672
g5
(F0.358
F0.854
F0.572
I730
I0
tp673
sg7
F5459.953289985657
sg8
I1000
sg9
I332
sa(dp674
g5
(F0.358
F0.857
F0.572
I732
I0
tp675
sg7
F5478.228376150131
sg8
I1000
sg9
I333
sa(dp676
g5
(F0.358
F0.863
F0.572
I732
I0
tp677
sg7
F5498.101609945297
sg8
I1000
sg9
I334
sa(dp678
g5
(F0.358
F0.864
F0.571
I736
I0
tp679
sg7
F5516.290092945099
sg8
I1000
sg9
I335
sa(dp680
g5
(F0.358
F0.863
F0.569
I741
I0
tp681
sg7
F5534.599930047989
sg8
I1000
sg9
I336
sa(dp682
g5
(F0.358
F0.865
F0.568
I747
I0
tp683
sg7
F5552.950936079025
sg8
I1000
sg9
I337
sa(dp684
g5
(F0.358
F0.878
F0.568
I750
I0
tp685
sg7
F5571.332173109055
sg8
I1000
sg9
I338
sa(dp686
g5
(F0.358
F0.871
F0.566
I745
I0
tp687
sg7
F5589.564306020737
sg8
I1000
sg9
I339
sa(dp688
g5
(F0.358
F0.878
F0.567
I751
I0
tp689
sg7
F5607.92729306221
sg8
I1000
sg9
I340
sa(dp690
g5
(F0.358
F0.872
F0.567
I747
I0
tp691
sg7
F5626.138119935989
sg8
I1000
sg9
I341
sa(dp692
g5
(F0.359
F0.878
F0.567
I748
I0
tp693
sg7
F5644.399855136871
sg8
I1000
sg9
I342
sa(dp694
g5
(F0.359
F0.874
F0.567
I755
I0
tp695
sg7
F5662.775354146957
sg8
I1000
sg9
I343
sa(dp696
g5
(F0.359
F0.88
F0.566
I760
I0
tp697
sg7
F5681.163298130035
sg8
I1000
sg9
I344
sa(dp698
g5
(F0.359
F0.886
F0.565
I764
I0
tp699
sg7
F5699.587393045425
sg8
I1000
sg9
I345
sa(dp700
g5
(F0.359
F0.881
F0.568
I760
I0
tp701
sg7
F5718.031533956528
sg8
I1000
sg9
I346
sa(dp702
g5
(F0.359
F0.879
F0.569
I756
I0
tp703
sg7
F5736.28959608078
sg8
I1000
sg9
I347
sa(dp704
g5
(F0.359
F0.889
F0.571
I754
I0
tp705
sg7
F5754.462738037109
sg8
I1000
sg9
I348
sa(dp706
g5
(F0.359
F0.879
F0.57
I756
I0
tp707
sg7
F5772.844352006912
sg8
I1000
sg9
I349
sa(dp708
g5
(F0.359
F0.885
F0.57
I762
I0
tp709
sg7
F5791.130644083023
sg8
I1000
sg9
I350
sa(dp710
g5
(F0.359
F0.889
F0.57
I769
I0
tp711
sg7
F5809.515388011932
sg8
I1000
sg9
I351
sa(dp712
g5
(F0.359
F0.89
F0.573
I770
I0
tp713
sg7
F5827.918537139893
sg8
I1000
sg9
I352
sa(dp714
g5
(F0.359
F0.886
F0.572
I774
I0
tp715
sg7
F5846.23810005188
sg8
I1000
sg9
I353
sa(dp716
g5
(F0.359
F0.897
F0.573
I782
I0
tp717
sg7
F5864.700742959976
sg8
I1000
sg9
I354
sa(dp718
g5
(F0.359
F0.892
F0.573
I783
I0
tp719
sg7
F5883.122516155243
sg8
I1000
sg9
I355
sa(dp720
g5
(F0.359
F0.898
F0.572
I781
I0
tp721
sg7
F5901.342411994934
sg8
I1000
sg9
I356
sa(dp722
g5
(F0.359
F0.888
F0.572
I780
I0
tp723
sg7
F5919.754289150238
sg8
I1000
sg9
I357
sa(dp724
g5
(F0.359
F0.898
F0.573
I769
I0
tp725
sg7
F5938.085023164749
sg8
I1000
sg9
I358
sa(dp726
g5
(F0.359
F0.9
F0.573
I773
I0
tp727
sg7
F5956.460392951965
sg8
I1000
sg9
I359
sa(dp728
g5
(F0.359
F0.907
F0.574
I780
I0
tp729
sg7
F5974.729933023453
sg8
I1000
sg9
I360
sa(dp730
g5
(F0.359
F0.9
F0.572
I779
I0
tp731
sg7
F5992.973248958588
sg8
I1000
sg9
I361
sa(dp732
g5
(F0.359
F0.908
F0.572
I774
I0
tp733
sg7
F6011.244294166565
sg8
I1000
sg9
I362
sa(dp734
g5
(F0.359
F0.897
F0.571
I770
I0
tp735
sg7
F6029.488965988159
sg8
I1000
sg9
I363
sa(dp736
g5
(F0.359
F0.905
F0.572
I773
I0
tp737
sg7
F6047.845773935318
sg8
I1000
sg9
I364
sa(dp738
g5
(F0.359
F0.905
F0.572
I775
I0
tp739
sg7
F6066.103093147278
sg8
I1000
sg9
I365
sa(dp740
g5
(F0.359
F0.907
F0.573
I778
I0
tp741
sg7
F6084.335126161575
sg8
I1000
sg9
I366
sa(dp742
g5
(F0.359
F0.903
F0.574
I779
I0
tp743
sg7
F6104.138514995575
sg8
I1000
sg9
I367
sa(dp744
g5
(F0.359
F0.907
F0.574
I789
I0
tp745
sg7
F6122.588340997696
sg8
I1000
sg9
I368
sa(dp746
g5
(F0.359
F0.9
F0.571
I786
I0
tp747
sg7
F6140.963860988617
sg8
I1000
sg9
I369
sa(dp748
g5
(F0.359
F0.904
F0.572
I783
I0
tp749
sg7
F6159.275887012482
sg8
I1000
sg9
I370
sa(dp750
g5
(F0.359
F0.896
F0.574
I777
I0
tp751
sg7
F6177.605394124985
sg8
I1000
sg9
I371
sa(dp752
g5
(F0.359
F0.906
F0.576
I781
I0
tp753
sg7
F6195.870893955231
sg8
I1000
sg9
I372
sa(dp754
g5
(F0.359
F0.911
F0.576
I786
I0
tp755
sg7
F6214.072417974472
sg8
I1000
sg9
I373
sa(dp756
g5
(F0.359
F0.91
F0.574
I780
I0
tp757
sg7
F6232.349346160889
sg8
I1000
sg9
I374
sa(dp758
g5
(F0.359
F0.902
F0.577
I776
I0
tp759
sg7
F6250.592260122299
sg8
I1000
sg9
I375
sa(dp760
g5
(F0.359
F0.91
F0.579
I782
I0
tp761
sg7
F6268.810369968414
sg8
I1000
sg9
I376
sa(dp762
g5
(F0.359
F0.91
F0.577
I779
I0
tp763
sg7
F6286.981204986572
sg8
I1000
sg9
I377
sa(dp764
g5
(F0.359
F0.914
F0.577
I784
I0
tp765
sg7
F6305.366250038147
sg8
I1000
sg9
I378
sa(dp766
g5
(F0.359
F0.922
F0.577
I786
I0
tp767
sg7
F6323.58790397644
sg8
I1000
sg9
I379
sa(dp768
g5
(F0.36
F0.929
F0.577
I794
I0
tp769
sg7
F6341.830333948135
sg8
I1000
sg9
I380
sa(dp770
g5
(F0.36
F0.93
F0.576
I798
I0
tp771
sg7
F6360.081489086151
sg8
I1000
sg9
I381
sa(dp772
g5
(F0.36
F0.929
F0.576
I801
I0
tp773
sg7
F6378.373067140579
sg8
I1000
sg9
I382
sa(dp774
g5
(F0.36
F0.93
F0.575
I802
I0
tp775
sg7
F6396.739760160446
sg8
I1000
sg9
I383
sa(dp776
g5
(F0.36
F0.941
F0.576
I807
I0
tp777
sg7
F6415.291198015213
sg8
I1000
sg9
I384
sa(dp778
g5
(F0.36
F0.929
F0.576
I798
I0
tp779
sg7
F6433.422707080841
sg8
I1000
sg9
I385
sa(dp780
g5
(F0.36
F0.941
F0.576
I802
I0
tp781
sg7
F6451.720288038254
sg8
I1000
sg9
I386
sa(dp782
g5
(F0.36
F0.944
F0.577
I813
I0
tp783
sg7
F6469.858701944351
sg8
I1000
sg9
I387
sa(dp784
g5
(F0.36
F0.943
F0.577
I813
I0
tp785
sg7
F6488.046342134476
sg8
I1000
sg9
I388
sa(dp786
g5
(F0.36
F0.941
F0.579
I799
I0
tp787
sg7
F6506.269130945206
sg8
I1000
sg9
I389
sa(dp788
g5
(F0.36
F0.932
F0.577
I803
I0
tp789
sg7
F6524.418663978577
sg8
I1000
sg9
I390
sa(dp790
g5
(F0.36
F0.933
F0.578
I806
I0
tp791
sg7
F6542.706382989883
sg8
I1000
sg9
I391
sa(dp792
g5
(F0.36
F0.925
F0.579
I803
I0
tp793
sg7
F6560.899394035339
sg8
I1000
sg9
I392
sa(dp794
g5
(F0.36
F0.918
F0.578
I799
I0
tp795
sg7
F6579.167860031128
sg8
I1000
sg9
I393
sa(dp796
g5
(F0.36
F0.914
F0.578
I804
I0
tp797
sg7
F6597.364331960678
sg8
I1000
sg9
I394
sa(dp798
g5
(F0.36
F0.91
F0.572
I782
I0
tp799
sg7
F6615.394848108292
sg8
I1000
sg9
I395
sa(dp800
g5
(F0.36
F0.915
F0.573
I774
I0
tp801
sg7
F6633.631824016571
sg8
I1000
sg9
I396
sa(dp802
g5
(F0.36
F0.911
F0.573
I774
I0
tp803
sg7
F6651.701409101486
sg8
I1000
sg9
I397
sa(dp804
g5
(F0.36
F0.91
F0.573
I774
I0
tp805
sg7
F6669.995362043381
sg8
I1000
sg9
I398
sa(dp806
g5
(F0.361
F0.905
F0.572
I773
I0
tp807
sg7
F6688.312725067139
sg8
I1000
sg9
I399
sa(dp808
g5
(F0.361
F0.908
F0.57
I771
I0
tp809
sg7
F6708.039845943451
sg8
I1000
sg9
I400
sa(dp810
g5
(F0.361
F0.9
F0.569
I766
I0
tp811
sg7
F6726.2460861206055
sg8
I1000
sg9
I401
sa(dp812
g5
(F0.361
F0.9
F0.569
I768
I0
tp813
sg7
F6744.47594499588
sg8
I1000
sg9
I402
sa(dp814
g5
(F0.361
F0.892
F0.571
I769
I0
tp815
sg7
F6762.616588115692
sg8
I1000
sg9
I403
sa(dp816
g5
(F0.361
F0.89
F0.569
I763
I0
tp817
sg7
F6780.862241029739
sg8
I1000
sg9
I404
sa(dp818
g5
(F0.361
F0.89
F0.57
I767
I0
tp819
sg7
F6799.049432039261
sg8
I1000
sg9
I405
sa(dp820
g5
(F0.361
F0.891
F0.569
I769
I0
tp821
sg7
F6817.450137138367
sg8
I1000
sg9
I406
sa(dp822
g5
(F0.361
F0.886
F0.568
I770
I0
tp823
sg7
F6835.769660949707
sg8
I1000
sg9
I407
sa(dp824
g5
(F0.361
F0.885
F0.568
I774
I0
tp825
sg7
F6854.0424971580505
sg8
I1000
sg9
I408
sa(dp826
g5
(F0.361
F0.89
F0.569
I780
I0
tp827
sg7
F6872.343852996826
sg8
I1000
sg9
I409
sa(dp828
g5
(F0.361
F0.89
F0.569
I773
I0
tp829
sg7
F6890.545706033707
sg8
I1000
sg9
I410
sa(dp830
g5
(F0.361
F0.886
F0.569
I765
I0
tp831
sg7
F6908.693675994873
sg8
I1000
sg9
I411
sa(dp832
g5
(F0.361
F0.887
F0.57
I770
I0
tp833
sg7
F6927.0466730594635
sg8
I1000
sg9
I412
sa(dp834
g5
(F0.361
F0.881
F0.568
I771
I0
tp835
sg7
F6945.400521039963
sg8
I1000
sg9
I413
sa(dp836
g5
(F0.361
F0.885
F0.569
I772
I0
tp837
sg7
F6963.722986936569
sg8
I1000
sg9
I414
sa(dp838
g5
(F0.361
F0.884
F0.57
I772
I0
tp839
sg7
F6982.0408091545105
sg8
I1000
sg9
I415
sa(dp840
g5
(F0.361
F0.888
F0.572
I775
I0
tp841
sg7
F7000.321712017059
sg8
I1000
sg9
I416
sa(dp842
g5
(F0.363
F0.889
F0.571
I779
I0
tp843
sg7
F7018.631912946701
sg8
I1000
sg9
I417
sa(dp844
g5
(F0.363
F0.876
F0.568
I755
I0
tp845
sg7
F7036.827136993408
sg8
I1000
sg9
I418
sa(dp846
g5
(F0.363
F0.88
F0.568
I759
I0
tp847
sg7
F7054.858606100082
sg8
I1000
sg9
I419
sa(dp848
g5
(F0.363
F0.888
F0.567
I764
I0
tp849
sg7
F7072.937404155731
sg8
I1000
sg9
I420
sa(dp850
g5
(F0.363
F0.887
F0.569
I767
I0
tp851
sg7
F7091.045658111572
sg8
I1000
sg9
I421
sa(dp852
g5
(F0.363
F0.887
F0.57
I769
I0
tp853
sg7
F7109.277435064316
sg8
I1000
sg9
I422
sa(dp854
g5
(F0.363
F0.891
F0.569
I771
I0
tp855
sg7
F7127.524284124374
sg8
I1000
sg9
I423
sa(dp856
g5
(F0.363
F0.896
F0.569
I777
I0
tp857
sg7
F7145.770997047424
sg8
I1000
sg9
I424
sa(dp858
g5
(F0.363
F0.894
F0.569
I771
I0
tp859
sg7
F7163.779514074326
sg8
I1000
sg9
I425
sa(dp860
g5
(F0.363
F0.897
F0.569
I774
I0
tp861
sg7
F7181.934910058975
sg8
I1000
sg9
I426
sa(dp862
g5
(F0.363
F0.878
F0.571
I760
I0
tp863
sg7
F7200.1076509952545
sg8
I1000
sg9
I427
sa(dp864
g5
(F0.363
F0.876
F0.571
I761
I0
tp865
sg7
F7218.261549949646
sg8
I1000
sg9
I428
sa(dp866
g5
(F0.364
F0.887
F0.572
I767
I0
tp867
sg7
F7236.367388010025
sg8
I1000
sg9
I429
sa(dp868
g5
(F0.364
F0.887
F0.571
I775
I0
tp869
sg7
F7254.704517126083
sg8
I1000
sg9
I430
sa(dp870
g5
(F0.364
F0.883
F0.572
I773
I0
tp871
sg7
F7272.93902015686
sg8
I1000
sg9
I431
sa(dp872
g5
(F0.364
F0.894
F0.569
I773
I0
tp873
sg7
F7291.310271978378
sg8
I1000
sg9
I432
sa(dp874
g5
(F0.364
F0.897
F0.57
I775
I0
tp875
sg7
F7310.996767997742
sg8
I1000
sg9
I433
sa(dp876
g5
(F0.364
F0.892
F0.575
I766
I0
tp877
sg7
F7329.167360067368
sg8
I1000
sg9
I434
sa(dp878
g5
(F0.364
F0.887
F0.575
I769
I0
tp879
sg7
F7347.24952507019
sg8
I1000
sg9
I435
sa(dp880
g5
(F0.364
F0.88
F0.574
I772
I0
tp881
sg7
F7365.528111934662
sg8
I1000
sg9
I436
sa(dp882
g5
(F0.364
F0.888
F0.575
I777
I0
tp883
sg7
F7383.73304104805
sg8
I1000
sg9
I437
sa(dp884
g5
(F0.364
F0.867
F0.58
I753
I0
tp885
sg7
F7401.9086830616
sg8
I1000
sg9
I438
sa(dp886
g5
(F0.364
F0.867
F0.578
I751
I0
tp887
sg7
F7420.032902956009
sg8
I1000
sg9
I439
sa(dp888
g5
(F0.364
F0.861
F0.578
I750
I0
tp889
sg7
F7438.132447004318
sg8
I1000
sg9
I440
sa(dp890
g5
(F0.364
F0.864
F0.576
I757
I0
tp891
sg7
F7456.443107128143
sg8
I1000
sg9
I441
sa(dp892
g5
(F0.364
F0.869
F0.575
I759
I0
tp893
sg7
F7474.7478630542755
sg8
I1000
sg9
I442
sa(dp894
g5
(F0.364
F0.872
F0.577
I769
I0
tp895
sg7
F7493.155316114426
sg8
I1000
sg9
I443
sa(dp896
g5
(F0.364
F0.873
F0.576
I769
I0
tp897
sg7
F7511.378299951553
sg8
I1000
sg9
I444
sa(dp898
g5
(F0.364
F0.876
F0.576
I770
I0
tp899
sg7
F7529.704385042191
sg8
I1000
sg9
I445
sa(dp900
g5
(F0.364
F0.872
F0.575
I771
I0
tp901
sg7
F7548.041749954224
sg8
I1000
sg9
I446
sa(dp902
g5
(F0.364
F0.863
F0.574
I768
I0
tp903
sg7
F7566.519799947739
sg8
I1000
sg9
I447
sa(dp904
g5
(F0.364
F0.871
F0.576
I769
I0
tp905
sg7
F7584.748402118683
sg8
I1000
sg9
I448
sa(dp906
g5
(F0.364
F0.874
F0.575
I771
I0
tp907
sg7
F7603.083672046661
sg8
I1000
sg9
I449
sa(dp908
g5
(F0.364
F0.86
F0.571
I756
I0
tp909
sg7
F7621.217432022095
sg8
I1000
sg9
I450
sa(dp910
g5
(F0.364
F0.871
F0.576
I753
I0
tp911
sg7
F7639.5242619514465
sg8
I1000
sg9
I451
sa(dp912
g5
(F0.364
F0.874
F0.576
I760
I0
tp913
sg7
F7657.727586984634
sg8
I1000
sg9
I452
sa(dp914
g5
(F0.364
F0.874
F0.574
I759
I0
tp915
sg7
F7675.905387163162
sg8
I1000
sg9
I453
sa(dp916
g5
(F0.364
F0.872
F0.575
I767
I0
tp917
sg7
F7694.149069070816
sg8
I1000
sg9
I454
sa(dp918
g5
(F0.364
F0.868
F0.576
I767
I0
tp919
sg7
F7712.28883600235
sg8
I1000
sg9
I455
sa(dp920
g5
(F0.364
F0.862
F0.578
I764
I0
tp921
sg7
F7730.644643068314
sg8
I1000
sg9
I456
sa(dp922
g5
(F0.364
F0.866
F0.578
I768
I0
tp923
sg7
F7748.912722110748
sg8
I1000
sg9
I457
sa(dp924
g5
(F0.364
F0.863
F0.579
I764
I0
tp925
sg7
F7767.111169099808
sg8
I1000
sg9
I458
sa(dp926
g5
(F0.364
F0.861
F0.577
I759
I0
tp927
sg7
F7785.427906036377
sg8
I1000
sg9
I459
sa(dp928
g5
(F0.364
F0.86
F0.577
I761
I0
tp929
sg7
F7803.608117103577
sg8
I1000
sg9
I460
sa(dp930
g5
(F0.364
F0.859
F0.577
I763
I0
tp931
sg7
F7821.9385731220245
sg8
I1000
sg9
I461
sa(dp932
g5
(F0.365
F0.862
F0.577
I761
I0
tp933
sg7
F7840.11488199234
sg8
I1000
sg9
I462
sa(dp934
g5
(F0.365
F0.869
F0.575
I761
I0
tp935
sg7
F7858.521842002869
sg8
I1000
sg9
I463
sa(dp936
g5
(F0.365
F0.868
F0.576
I757
I0
tp937
sg7
F7876.718888044357
sg8
I1000
sg9
I464
sa(dp938
g5
(F0.365
F0.874
F0.576
I761
I0
tp939
sg7
F7894.911318063736
sg8
I1000
sg9
I465
sa(dp940
g5
(F0.365
F0.884
F0.575
I762
I0
tp941
sg7
F7914.690155029297
sg8
I1000
sg9
I466
sa(dp942
g5
(F0.365
F0.887
F0.574
I768
I0
tp943
sg7
F7932.974164009094
sg8
I1000
sg9
I467
sa(dp944
g5
(F0.365
F0.877
F0.574
I763
I0
tp945
sg7
F7951.085695028305
sg8
I1000
sg9
I468
sa(dp946
g5
(F0.365
F0.88
F0.573
I762
I0
tp947
sg7
F7969.3034081459045
sg8
I1000
sg9
I469
sa(dp948
g5
(F0.365
F0.886
F0.574
I768
I0
tp949
sg7
F7987.636554956436
sg8
I1000
sg9
I470
sa(dp950
g5
(F0.365
F0.887
F0.573
I773
I0
tp951
sg7
F8005.908924102783
sg8
I1000
sg9
I471
sa(dp952
g5
(F0.365
F0.884
F0.573
I774
I0
tp953
sg7
F8024.287616014481
sg8
I1000
sg9
I472
sa(dp954
g5
(F0.365
F0.887
F0.574
I774
I0
tp955
sg7
F8042.626893043518
sg8
I1000
sg9
I473
sa(dp956
g5
(F0.365
F0.887
F0.574
I773
I0
tp957
sg7
F8060.859737157822
sg8
I1000
sg9
I474
sa(dp958
g5
(F0.365
F0.892
F0.574
I773
I0
tp959
sg7
F8079.092772960663
sg8
I1000
sg9
I475
sa(dp960
g5
(F0.365
F0.886
F0.572
I762
I0
tp961
sg7
F8097.285598993301
sg8
I1000
sg9
I476
sa(dp962
g5
(F0.365
F0.887
F0.571
I766
I0
tp963
sg7
F8115.420396089554
sg8
I1000
sg9
I477
sa(dp964
g5
(F0.365
F0.888
F0.57
I766
I0
tp965
sg7
F8133.862063169479
sg8
I1000
sg9
I478
sa(dp966
g5
(F0.365
F0.887
F0.57
I764
I0
tp967
sg7
F8152.038733005524
sg8
I1000
sg9
I479
sa(dp968
g5
(F0.365
F0.889
F0.569
I766
I0
tp969
sg7
F8170.446203947067
sg8
I1000
sg9
I480
sa(dp970
g5
(F0.365
F0.879
F0.57
I761
I0
tp971
sg7
F8188.748023986816
sg8
I1000
sg9
I481
sa(dp972
g5
(F0.365
F0.88
F0.57
I762
I0
tp973
sg7
F8207.054607152939
sg8
I1000
sg9
I482
sa(dp974
g5
(F0.365
F0.886
F0.57
I765
I0
tp975
sg7
F8225.385324001312
sg8
I1000
sg9
I483
sa(dp976
g5
(F0.365
F0.887
F0.569
I770
I0
tp977
sg7
F8243.618077039719
sg8
I1000
sg9
I484
sa(dp978
g5
(F0.365
F0.89
F0.567
I768
I0
tp979
sg7
F8261.801953077316
sg8
I1000
sg9
I485
sa(dp980
g5
(F0.365
F0.884
F0.566
I770
I0
tp981
sg7
F8280.058217048645
sg8
I1000
sg9
I486
sa(dp982
g5
(F0.365
F0.891
F0.565
I771
I0
tp983
sg7
F8298.175070047379
sg8
I1000
sg9
I487
sa(dp984
g5
(F0.365
F0.892
F0.566
I772
I0
tp985
sg7
F8316.407289028168
sg8
I1000
sg9
I488
sa(dp986
g5
(F0.365
F0.899
F0.564
I774
I0
tp987
sg7
F8334.687584161758
sg8
I1000
sg9
I489
sa(dp988
g5
(F0.365
F0.881
F0.563
I762
I0
tp989
sg7
F8352.809275150299
sg8
I1000
sg9
I490
sa(dp990
g5
(F0.365
F0.882
F0.559
I753
I0
tp991
sg7
F8371.094680070877
sg8
I1000
sg9
I491
sa(dp992
g5
(F0.365
F0.88
F0.559
I758
I0
tp993
sg7
F8389.160535097122
sg8
I1000
sg9
I492
sa(dp994
g5
(F0.367
F0.889
F0.56
I761
I0
tp995
sg7
F8407.477823972702
sg8
I1000
sg9
I493
sa(dp996
g5
(F0.367
F0.883
F0.561
I761
I0
tp997
sg7
F8425.68552994728
sg8
I1000
sg9
I494
sa(dp998
g5
(F0.367
F0.891
F0.56
I769
I0
tp999
sg7
F8444.075751066208
sg8
I1000
sg9
I495
sa(dp1000
g5
(F0.369
F0.9
F0.56
I766
I0
tp1001
sg7
F8462.430997133255
sg8
I1000
sg9
I496
sa(dp1002
g5
(F0.369
F0.896
F0.559
I769
I0
tp1003
sg7
F8480.623172998428
sg8
I1000
sg9
I497
sa(dp1004
g5
(F0.369
F0.891
F0.559
I769
I0
tp1005
sg7
F8498.884699106216
sg8
I1000
sg9
I498
sa(dp1006
g5
(F0.369
F0.898
F0.558
I771
I0
tp1007
sg7
F8519.13875412941
sg8
I1000
sg9
I499
sa(dp1008
g5
(F0.369
F0.889
F0.559
I775
I0
tp1009
sg7
F8537.354485034943
sg8
I1000
sg9
I500
sa(dp1010
g5
(F0.369
F0.888
F0.56
I758
I0
tp1011
sg7
F8555.457513093948
sg8
I1000
sg9
I501
sa(dp1012
g5
(F0.369
F0.883
F0.561
I759
I0
tp1013
sg7
F8573.6750061512
sg8
I1000
sg9
I502
sa(dp1014
g5
(F0.369
F0.898
F0.562
I765
I0
tp1015
sg7
F8591.821584939957
sg8
I1000
sg9
I503
sa(dp1016
g5
(F0.369
F0.886
F0.561
I766
I0
tp1017
sg7
F8610.01476097107
sg8
I1000
sg9
I504
sa(dp1018
g5
(F0.369
F0.895
F0.561
I762
I0
tp1019
sg7
F8628.25172495842
sg8
I1000
sg9
I505
sa(dp1020
g5
(F0.369
F0.899
F0.56
I770
I0
tp1021
sg7
F8646.411751031876
sg8
I1000
sg9
I506
sa(dp1022
g5
(F0.369
F0.898
F0.559
I776
I0
tp1023
sg7
F8664.795751094818
sg8
I1000
sg9
I507
sa(dp1024
g5
(F0.369
F0.889
F0.559
I775
I0
tp1025
sg7
F8682.985859155655
sg8
I1000
sg9
I508
sa(dp1026
g5
(F0.37
F0.895
F0.558
I780
I0
tp1027
sg7
F8701.283415079117
sg8
I1000
sg9
I509
sa(dp1028
g5
(F0.37
F0.886
F0.559
I780
I0
tp1029
sg7
F8719.56279206276
sg8
I1000
sg9
I510
sa(dp1030
g5
(F0.37
F0.892
F0.558
I782
I0
tp1031
sg7
F8737.71245598793
sg8
I1000
sg9
I511
sa(dp1032
g5
(F0.37
F0.886
F0.558
I778
I0
tp1033
sg7
F8755.936013936996
sg8
I1000
sg9
I512
sa(dp1034
g5
(F0.37
F0.891
F0.556
I782
I0
tp1035
sg7
F8773.988170146942
sg8
I1000
sg9
I513
sa(dp1036
g5
(F0.37
F0.889
F0.557
I783
I0
tp1037
sg7
F8792.328142166138
sg8
I1000
sg9
I514
sa(dp1038
g5
(F0.37
F0.887
F0.556
I780
I0
tp1039
sg7
F8810.537066936493
sg8
I1000
sg9
I515
sa(dp1040
g5
(F0.37
F0.891
F0.558
I775
I0
tp1041
sg7
F8828.741410970688
sg8
I1000
sg9
I516
sa(dp1042
g5
(F0.37
F0.892
F0.558
I774
I0
tp1043
sg7
F8846.916599035263
sg8
I1000
sg9
I517
sa(dp1044
g5
(F0.37
F0.884
F0.557
I771
I0
tp1045
sg7
F8865.04969716072
sg8
I1000
sg9
I518
sa(dp1046
g5
(F0.37
F0.891
F0.557
I775
I0
tp1047
sg7
F8883.214236974716
sg8
I1000
sg9
I519
sa(dp1048
g5
(F0.37
F0.898
F0.556
I781
I0
tp1049
sg7
F8901.535917043686
sg8
I1000
sg9
I520
sa(dp1050
g5
(F0.37
F0.904
F0.555
I784
I0
tp1051
sg7
F8919.741742134094
sg8
I1000
sg9
I521
sa(dp1052
g5
(F0.37
F0.895
F0.554
I780
I0
tp1053
sg7
F8937.899058103561
sg8
I1000
sg9
I522
sa(dp1054
g5
(F0.37
F0.877
F0.553
I771
I0
tp1055
sg7
F8955.982771158218
sg8
I1000
sg9
I523
sa(dp1056
g5
(F0.37
F0.879
F0.553
I774
I0
tp1057
sg7
F8974.155595064163
sg8
I1000
sg9
I524
sa(dp1058
g5
(F0.37
F0.866
F0.555
I766
I0
tp1059
sg7
F8992.287953138351
sg8
I1000
sg9
I525
sa(dp1060
g5
(F0.372
F0.868
F0.555
I770
I0
tp1061
sg7
F9010.605262994766
sg8
I1000
sg9
I526
sa(dp1062
g5
(F0.372
F0.869
F0.554
I776
I0
tp1063
sg7
F9028.84297299385
sg8
I1000
sg9
I527
sa(dp1064
g5
(F0.372
F0.868
F0.553
I782
I0
tp1065
sg7
F9047.017106056213
sg8
I1000
sg9
I528
sa(dp1066
g5
(F0.372
F0.864
F0.556
I772
I0
tp1067
sg7
F9065.290884017944
sg8
I1000
sg9
I529
sa(dp1068
g5
(F0.372
F0.872
F0.557
I775
I0
tp1069
sg7
F9083.564002990723
sg8
I1000
sg9
I530
sa(dp1070
g5
(F0.372
F0.863
F0.557
I778
I0
tp1071
sg7
F9101.93197798729
sg8
I1000
sg9
I531
sa(dp1072
g5
(F0.372
F0.864
F0.556
I782
I0
tp1073
sg7
F9121.852842092514
sg8
I1000
sg9
I532
sa(dp1074
g5
(F0.372
F0.875
F0.556
I789
I0
tp1075
sg7
F9140.371088027954
sg8
I1000
sg9
I533
sa(dp1076
g5
(F0.372
F0.872
F0.556
I795
I0
tp1077
sg7
F9158.818208932877
sg8
I1000
sg9
I534
sa(dp1078
g5
(F0.372
F0.877
F0.558
I796
I0
tp1079
sg7
F9177.129184961319
sg8
I1000
sg9
I535
sa(dp1080
g5
(F0.372
F0.874
F0.557
I796
I0
tp1081
sg7
F9195.458209991455
sg8
I1000
sg9
I536
sa(dp1082
g5
(F0.372
F0.878
F0.554
I793
I0
tp1083
sg7
F9213.770203113556
sg8
I1000
sg9
I537
sa(dp1084
g5
(F0.372
F0.872
F0.554
I793
I0
tp1085
sg7
F9232.144940137863
sg8
I1000
sg9
I538
sa(dp1086
g5
(F0.372
F0.875
F0.557
I791
I0
tp1087
sg7
F9250.449874162674
sg8
I1000
sg9
I539
sa(dp1088
g5
(F0.372
F0.881
F0.557
I795
I0
tp1089
sg7
F9268.736034154892
sg8
I1000
sg9
I540
sa(dp1090
g5
(F0.372
F0.887
F0.556
I798
I0
tp1091
sg7
F9287.09255194664
sg8
I1000
sg9
I541
sa(dp1092
g5
(F0.372
F0.886
F0.555
I802
I0
tp1093
sg7
F9305.38194513321
sg8
I1000
sg9
I542
sa(dp1094
g5
(F0.372
F0.875
F0.554
I793
I0
tp1095
sg7
F9323.715247154236
sg8
I1000
sg9
I543
sa(dp1096
g5
(F0.372
F0.867
F0.554
I797
I0
tp1097
sg7
F9341.996794939041
sg8
I1000
sg9
I544
sa(dp1098
g5
(F0.372
F0.879
F0.553
I798
I0
tp1099
sg7
F9360.286003112793
sg8
I1000
sg9
I545
sa(dp1100
g5
(F0.372
F0.881
F0.553
I802
I0
tp1101
sg7
F9378.62678194046
sg8
I1000
sg9
I546
sa(dp1102
g5
(F0.372
F0.887
F0.552
I803
I0
tp1103
sg7
F9396.995416164398
sg8
I1000
sg9
I547
sa(dp1104
g5
(F0.372
F0.885
F0.551
I804
I0
tp1105
sg7
F9415.396695137024
sg8
I1000
sg9
I548
sa(dp1106
g5
(F0.372
F0.89
F0.552
I799
I0
tp1107
sg7
F9433.636398077011
sg8
I1000
sg9
I549
sa(dp1108
g5
(F0.372
F0.888
F0.553
I801
I0
tp1109
sg7
F9451.906420946121
sg8
I1000
sg9
I550
sa(dp1110
g5
(F0.372
F0.89
F0.552
I804
I0
tp1111
sg7
F9470.234770059586
sg8
I1000
sg9
I551
sa(dp1112
g5
(F0.372
F0.883
F0.552
I798
I0
tp1113
sg7
F9488.507957935333
sg8
I1000
sg9
I552
sa(dp1114
g5
(F0.372
F0.885
F0.554
I798
I0
tp1115
sg7
F9506.960214138031
sg8
I1000
sg9
I553
sa(dp1116
g5
(F0.372
F0.877
F0.554
I797
I0
tp1117
sg7
F9525.287497997284
sg8
I1000
sg9
I554
sa(dp1118
g5
(F0.372
F0.886
F0.554
I800
I0
tp1119
sg7
F9543.600754976273
sg8
I1000
sg9
I555
sa(dp1120
g5
(F0.372
F0.881
F0.555
I803
I0
tp1121
sg7
F9561.905945062637
sg8
I1000
sg9
I556
sa(dp1122
g5
(F0.372
F0.887
F0.557
I801
I0
tp1123
sg7
F9580.088372945786
sg8
I1000
sg9
I557
sa(dp1124
g5
(F0.372
F0.885
F0.557
I804
I0
tp1125
sg7
F9598.463286161423
sg8
I1000
sg9
I558
sa(dp1126
g5
(F0.372
F0.895
F0.558
I809
I0
tp1127
sg7
F9616.773208141327
sg8
I1000
sg9
I559
sa(dp1128
g5
(F0.372
F0.888
F0.562
I795
I0
tp1129
sg7
F9635.013540029526
sg8
I1000
sg9
I560
sa(dp1130
g5
(F0.372
F0.891
F0.561
I796
I0
tp1131
sg7
F9653.226894140244
sg8
I1000
sg9
I561
sa(dp1132
g5
(F0.373
F0.888
F0.563
I797
I0
tp1133
sg7
F9671.522424936295
sg8
I1000
sg9
I562
sa(dp1134
g5
(F0.373
F0.89
F0.563
I800
I0
tp1135
sg7
F9689.784283161163
sg8
I1000
sg9
I563
sa(dp1136
g5
(F0.373
F0.886
F0.565
I796
I0
tp1137
sg7
F9708.071078062057
sg8
I1000
sg9
I564
sa(dp1138
g5
(F0.373
F0.893
F0.565
I801
I0
tp1139
sg7
F9727.774471998215
sg8
I1000
sg9
I565
sa(dp1140
g5
(F0.373
F0.885
F0.565
I801
I0
tp1141
sg7
F9746.138594150543
sg8
I1000
sg9
I566
sa(dp1142
g5
(F0.373
F0.891
F0.566
I805
I0
tp1143
sg7
F9764.620687961578
sg8
I1000
sg9
I567
sa(dp1144
g5
(F0.373
F0.887
F0.568
I807
I0
tp1145
sg7
F9783.05452799797
sg8
I1000
sg9
I568
sa(dp1146
g5
(F0.373
F0.883
F0.568
I798
I0
tp1147
sg7
F9801.344267129898
sg8
I1000
sg9
I569
sa(dp1148
g5
(F0.373
F0.876
F0.567
I799
I0
tp1149
sg7
F9819.710083961487
sg8
I1000
sg9
I570
sa(dp1150
g5
(F0.373
F0.888
F0.568
I803
I0
tp1151
sg7
F9838.181599140167
sg8
I1000
sg9
I571
sa(dp1152
g5
(F0.373
F0.885
F0.568
I807
I0
tp1153
sg7
F9856.676358938217
sg8
I1000
sg9
I572
sa(dp1154
g5
(F0.373
F0.885
F0.568
I810
I0
tp1155
sg7
F9875.156898021698
sg8
I1000
sg9
I573
sa(dp1156
g5
(F0.373
F0.892
F0.568
I815
I0
tp1157
sg7
F9893.5321559906
sg8
I1000
sg9
I574
sa(dp1158
g5
(F0.373
F0.887
F0.568
I820
I0
tp1159
sg7
F9911.977656126022
sg8
I1000
sg9
I575
sa(dp1160
g5
(F0.373
F0.886
F0.568
I820
I0
tp1161
sg7
F9930.4156229496
sg8
I1000
sg9
I576
sa(dp1162
g5
(F0.373
F0.892
F0.567
I824
I0
tp1163
sg7
F9948.856622934341
sg8
I1000
sg9
I577
sa(dp1164
g5
(F0.373
F0.887
F0.567
I828
I0
tp1165
sg7
F9967.357629060745
sg8
I1000
sg9
I578
sa(dp1166
g5
(F0.373
F0.892
F0.567
I826
I0
tp1167
sg7
F9985.639440059662
sg8
I1000
sg9
I579
sa(dp1168
g5
(F0.373
F0.892
F0.567
I828
I0
tp1169
sg7
F10004.031774044037
sg8
I1000
sg9
I580
sa(dp1170
g5
(F0.373
F0.896
F0.569
I826
I0
tp1171
sg7
F10022.381428956985
sg8
I1000
sg9
I581
sa(dp1172
g5
(F0.373
F0.889
F0.57
I831
I0
tp1173
sg7
F10040.7914249897
sg8
I1000
sg9
I582
sa(dp1174
g5
(F0.373
F0.88
F0.574
I819
I0
tp1175
sg7
F10059.077435970306
sg8
I1000
sg9
I583
sa(dp1176
g5
(F0.373
F0.886
F0.574
I824
I0
tp1177
sg7
F10077.527265071869
sg8
I1000
sg9
I584
sa(dp1178
g5
(F0.373
F0.879
F0.575
I819
I0
tp1179
sg7
F10095.944695949554
sg8
I1000
sg9
I585
sa(dp1180
g5
(F0.373
F0.891
F0.576
I823
I0
tp1181
sg7
F10114.487751960754
sg8
I1000
sg9
I586
sa(dp1182
g5
(F0.373
F0.884
F0.576
I824
I0
tp1183
sg7
F10132.905841112137
sg8
I1000
sg9
I587
sa(dp1184
g5
(F0.373
F0.877
F0.576
I823
I0
tp1185
sg7
F10151.21732711792
sg8
I1000
sg9
I588
sa(dp1186
g5
(F0.373
F0.875
F0.576
I821
I0
tp1187
sg7
F10169.653460025787
sg8
I1000
sg9
I589
sa(dp1188
g5
(F0.373
F0.872
F0.574
I813
I0
tp1189
sg7
F10188.046152114868
sg8
I1000
sg9
I590
sa(dp1190
g5
(F0.373
F0.865
F0.573
I806
I0
tp1191
sg7
F10206.528162956238
sg8
I1000
sg9
I591
sa(dp1192
g5
(F0.373
F0.87
F0.574
I804
I0
tp1193
sg7
F10225.012501955032
sg8
I1000
sg9
I592
sa(dp1194
g5
(F0.373
F0.867
F0.574
I806
I0
tp1195
sg7
F10243.566950082779
sg8
I1000
sg9
I593
sa(dp1196
g5
(F0.373
F0.874
F0.572
I799
I0
tp1197
sg7
F10261.92520403862
sg8
I1000
sg9
I594
sa(dp1198
g5
(F0.373
F0.869
F0.572
I803
I0
tp1199
sg7
F10280.376377105713
sg8
I1000
sg9
I595
sa(dp1200
g5
(F0.374
F0.883
F0.572
I808
I0
tp1201
sg7
F10298.952196121216
sg8
I1000
sg9
I596
sa(dp1202
g5
(F0.374
F0.887
F0.573
I817
I0
tp1203
sg7
F10317.448718070984
sg8
I1000
sg9
I597
sa(dp1204
g5
(F0.374
F0.892
F0.574
I816
I0
tp1205
sg7
F10337.49554014206
sg8
I1000
sg9
I598
sa(dp1206
g5
(F0.374
F0.891
F0.573
I820
I0
tp1207
sg7
F10356.048135995865
sg8
I1000
sg9
I599
sa(dp1208
g5
(F0.374
F0.893
F0.572
I817
I0
tp1209
sg7
F10374.524913072586
sg8
I1000
sg9
I600
sa(dp1210
g5
(F0.374
F0.883
F0.571
I815
I0
tp1211
sg7
F10392.776623010635
sg8
I1000
sg9
I601
sa(dp1212
g5
(F0.374
F0.897
F0.571
I820
I0
tp1213
sg7
F10410.97891497612
sg8
I1000
sg9
I602
sa(dp1214
g5
(F0.374
F0.896
F0.569
I820
I0
tp1215
sg7
F10429.281751155853
sg8
I1000
sg9
I603
sa(dp1216
g5
(F0.374
F0.877
F0.568
I798
I0
tp1217
sg7
F10447.381603002548
sg8
I1000
sg9
I604
sa(dp1218
g5
(F0.374
F0.876
F0.57
I798
I0
tp1219
sg7
F10465.88410115242
sg8
I1000
sg9
I605
sa(dp1220
g5
(F0.374
F0.891
F0.57
I804
I0
tp1221
sg7
F10484.218296051025
sg8
I1000
sg9
I606
sa(dp1222
g5
(F0.374
F0.878
F0.57
I799
I0
tp1223
sg7
F10502.427757024765
sg8
I1000
sg9
I607
sa(dp1224
g5
(F0.374
F0.881
F0.569
I799
I0
tp1225
sg7
F10520.662534952164
sg8
I1000
sg9
I608
sa(dp1226
g5
(F0.374
F0.876
F0.57
I802
I0
tp1227
sg7
F10538.984497070312
sg8
I1000
sg9
I609
sa(dp1228
g5
(F0.374
F0.872
F0.568
I794
I0
tp1229
sg7
F10557.346974134445
sg8
I1000
sg9
I610
sa(dp1230
g5
(F0.374
F0.863
F0.568
I794
I0
tp1231
sg7
F10575.647277116776
sg8
I1000
sg9
I611
sa(dp1232
g5
(F0.374
F0.856
F0.565
I782
I0
tp1233
sg7
F10593.891263008118
sg8
I1000
sg9
I612
sa(dp1234
g5
(F0.374
F0.849
F0.565
I784
I0
tp1235
sg7
F10612.315343141556
sg8
I1000
sg9
I613
sa(dp1236
g5
(F0.374
F0.866
F0.565
I787
I0
tp1237
sg7
F10630.714153051376
sg8
I1000
sg9
I614
sa(dp1238
g5
(F0.374
F0.86
F0.565
I790
I0
tp1239
sg7
F10649.227098941803
sg8
I1000
sg9
I615
sa(dp1240
g5
(F0.374
F0.868
F0.564
I793
I0
tp1241
sg7
F10667.569674015045
sg8
I1000
sg9
I616
sa(dp1242
g5
(F0.374
F0.859
F0.567
I789
I0
tp1243
sg7
F10685.925430059433
sg8
I1000
sg9
I617
sa(dp1244
g5
(F0.374
F0.872
F0.566
I797
I0
tp1245
sg7
F10704.274814128876
sg8
I1000
sg9
I618
sa(dp1246
g5
(F0.374
F0.864
F0.566
I801
I0
tp1247
sg7
F10722.673100948334
sg8
I1000
sg9
I619
sa(dp1248
g5
(F0.374
F0.88
F0.567
I806
I0
tp1249
sg7
F10741.1395881176
sg8
I1000
sg9
I620
sa(dp1250
g5
(F0.374
F0.876
F0.566
I810
I0
tp1251
sg7
F10759.610543966293
sg8
I1000
sg9
I621
sa(dp1252
g5
(F0.374
F0.883
F0.566
I806
I0
tp1253
sg7
F10778.172132015228
sg8
I1000
sg9
I622
sa(dp1254
g5
(F0.374
F0.883
F0.564
I802
I0
tp1255
sg7
F10796.563987970352
sg8
I1000
sg9
I623
sa(dp1256
g5
(F0.374
F0.89
F0.564
I806
I0
tp1257
sg7
F10814.980813026428
sg8
I1000
sg9
I624
sa(dp1258
g5
(F0.374
F0.878
F0.566
I806
I0
tp1259
sg7
F10833.396260023117
sg8
I1000
sg9
I625
sa(dp1260
g5
(F0.374
F0.887
F0.567
I812
I0
tp1261
sg7
F10851.788107156754
sg8
I1000
sg9
I626
sa(dp1262
g5
(F0.374
F0.88
F0.565
I810
I0
tp1263
sg7
F10870.194561958313
sg8
I1000
sg9
I627
sa(dp1264
g5
(F0.374
F0.886
F0.566
I808
I0
tp1265
sg7
F10888.666754961014
sg8
I1000
sg9
I628
sa(dp1266
g5
(F0.374
F0.884
F0.566
I810
I0
tp1267
sg7
F10907.097072124481
sg8
I1000
sg9
I629
sa(dp1268
g5
(F0.374
F0.887
F0.565
I808
I0
tp1269
sg7
F10925.651144981384
sg8
I1000
sg9
I630
sa(dp1270
g5
(F0.374
F0.881
F0.563
I806
I0
tp1271
sg7
F10945.812133073807
sg8
I1000
sg9
I631
sa(dp1272
g5
(F0.374
F0.887
F0.563
I804
I0
tp1273
sg7
F10964.254498958588
sg8
I1000
sg9
I632
sa(dp1274
g5
(F0.374
F0.874
F0.561
I800
I0
tp1275
sg7
F10982.591393947601
sg8
I1000
sg9
I633
sa(dp1276
g5
(F0.374
F0.879
F0.562
I799
I0
tp1277
sg7
F11001.044701099396
sg8
I1000
sg9
I634
sa(dp1278
g5
(F0.374
F0.882
F0.562
I802
I0
tp1279
sg7
F11019.605385065079
sg8
I1000
sg9
I635
sa(dp1280
g5
(F0.374
F0.879
F0.563
I797
I0
tp1281
sg7
F11037.998016119003
sg8
I1000
sg9
I636
sa(dp1282
g5
(F0.375
F0.871
F0.563
I800
I0
tp1283
sg7
F11056.536932945251
sg8
I1000
sg9
I637
sa(dp1284
g5
(F0.375
F0.878
F0.562
I807
I0
tp1285
sg7
F11075.06361413002
sg8
I1000
sg9
I638
sa(dp1286
g5
(F0.375
F0.875
F0.561
I810
I0
tp1287
sg7
F11093.644462108612
sg8
I1000
sg9
I639
sa(dp1288
g5
(F0.375
F0.879
F0.56
I810
I0
tp1289
sg7
F11112.05979514122
sg8
I1000
sg9
I640
sa(dp1290
g5
(F0.375
F0.874
F0.56
I806
I0
tp1291
sg7
F11130.475340127945
sg8
I1000
sg9
I641
sa(dp1292
g5
(F0.375
F0.881
F0.56
I813
I0
tp1293
sg7
F11149.12930893898
sg8
I1000
sg9
I642
sa(dp1294
g5
(F0.375
F0.869
F0.559
I811
I0
tp1295
sg7
F11167.51309299469
sg8
I1000
sg9
I643
sa(dp1296
g5
(F0.375
F0.878
F0.559
I815
I0
tp1297
sg7
F11186.194865942001
sg8
I1000
sg9
I644
sa(dp1298
g5
(F0.375
F0.879
F0.559
I815
I0
tp1299
sg7
F11204.753669023514
sg8
I1000
sg9
I645
sa(dp1300
g5
(F0.375
F0.884
F0.559
I821
I0
tp1301
sg7
F11223.232161045074
sg8
I1000
sg9
I646
sa(dp1302
g5
(F0.375
F0.887
F0.559
I825
I0
tp1303
sg7
F11241.734966993332
sg8
I1000
sg9
I647
sa(dp1304
g5
(F0.375
F0.888
F0.558
I826
I0
tp1305
sg7
F11260.366686105728
sg8
I1000
sg9
I648
sa(dp1306
g5
(F0.375
F0.893
F0.56
I827
I0
tp1307
sg7
F11278.780455112457
sg8
I1000
sg9
I649
sa(dp1308
g5
(F0.375
F0.892
F0.562
I823
I0
tp1309
sg7
F11297.327430963516
sg8
I1000
sg9
I650
sa(dp1310
g5
(F0.375
F0.89
F0.562
I829
I0
tp1311
sg7
F11315.9593501091
sg8
I1000
sg9
I651
sa(dp1312
g5
(F0.375
F0.888
F0.562
I826
I0
tp1313
sg7
F11334.514800071716
sg8
I1000
sg9
I652
sa(dp1314
g5
(F0.375
F0.888
F0.563
I825
I0
tp1315
sg7
F11353.014647960663
sg8
I1000
sg9
I653
sa(dp1316
g5
(F0.375
F0.889
F0.563
I826
I0
tp1317
sg7
F11371.391299009323
sg8
I1000
sg9
I654
sa(dp1318
g5
(F0.375
F0.891
F0.561
I820
I0
tp1319
sg7
F11389.716009140015
sg8
I1000
sg9
I655
sa(dp1320
g5
(F0.376
F0.889
F0.56
I824
I0
tp1321
sg7
F11407.943114042282
sg8
I1000
sg9
I656
sa(dp1322
g5
(F0.376
F0.896
F0.559
I830
I0
tp1323
sg7
F11426.376409053802
sg8
I1000
sg9
I657
sa(dp1324
g5
(F0.376
F0.888
F0.559
I829
I0
tp1325
sg7
F11444.873053073883
sg8
I1000
sg9
I658
sa(dp1326
g5
(F0.376
F0.895
F0.559
I832
I0
tp1327
sg7
F11463.409130096436
sg8
I1000
sg9
I659
sa(dp1328
g5
(F0.376
F0.882
F0.559
I834
I0
tp1329
sg7
F11481.919763088226
sg8
I1000
sg9
I660
sa(dp1330
g5
(F0.376
F0.893
F0.562
I837
I0
tp1331
sg7
F11500.359889030457
sg8
I1000
sg9
I661
sa(dp1332
g5
(F0.376
F0.885
F0.562
I834
I0
tp1333
sg7
F11518.851869106293
sg8
I1000
sg9
I662
sa(dp1334
g5
(F0.376
F0.886
F0.561
I836
I0
tp1335
sg7
F11537.51507115364
sg8
I1000
sg9
I663
sa(dp1336
g5
(F0.376
F0.882
F0.561
I837
I0
tp1337
sg7
F11557.544181108475
sg8
I1000
sg9
I664
sa(dp1338
g5
(F0.376
F0.891
F0.56
I838
I0
tp1339
sg7
F11576.062188148499
sg8
I1000
sg9
I665
sa(dp1340
g5
(F0.376
F0.891
F0.56
I842
I0
tp1341
sg7
F11594.52644610405
sg8
I1000
sg9
I666
sa(dp1342
g5
(F0.376
F0.899
F0.561
I844
I0
tp1343
sg7
F11613.080811977386
sg8
I1000
sg9
I667
sa(dp1344
g5
(F0.376
F0.9
F0.562
I840
I0
tp1345
sg7
F11631.732587099075
sg8
I1000
sg9
I668
sa(dp1346
g5
(F0.376
F0.901
F0.562
I841
I0
tp1347
sg7
F11650.2737159729
sg8
I1000
sg9
I669
sa(dp1348
g5
(F0.378
F0.896
F0.564
I842
I0
tp1349
sg7
F11668.690942049026
sg8
I1000
sg9
I670
sa(dp1350
g5
(F0.378
F0.906
F0.562
I845
I0
tp1351
sg7
F11687.015435934067
sg8
I1000
sg9
I671
sa(dp1352
g5
(F0.378
F0.899
F0.563
I849
I0
tp1353
sg7
F11705.585059165955
sg8
I1000
sg9
I672
sa(dp1354
g5
(F0.378
F0.909
F0.564
I857
I0
tp1355
sg7
F11724.193629026413
sg8
I1000
sg9
I673
sa(dp1356
g5
(F0.378
F0.899
F0.565
I855
I0
tp1357
sg7
F11742.637278079987
sg8
I1000
sg9
I674
sa(dp1358
g5
(F0.378
F0.898
F0.564
I852
I0
tp1359
sg7
F11761.2069170475
sg8
I1000
sg9
I675
sa(dp1360
g5
(F0.378
F0.895
F0.564
I853
I0
tp1361
sg7
F11779.591738939285
sg8
I1000
sg9
I676
sa(dp1362
g5
(F0.378
F0.897
F0.563
I845
I0
tp1363
sg7
F11798.10924911499
sg8
I1000
sg9
I677
sa(dp1364
g5
(F0.378
F0.889
F0.568
I837
I0
tp1365
sg7
F11816.509078025818
sg8
I1000
sg9
I678
sa(dp1366
g5
(F0.378
F0.893
F0.568
I839
I0
tp1367
sg7
F11834.999324083328
sg8
I1000
sg9
I679
sa(dp1368
g5
(F0.378
F0.893
F0.574
I834
I0
tp1369
sg7
F11853.349806070328
sg8
I1000
sg9
I680
sa(dp1370
g5
(F0.378
F0.899
F0.576
I838
I0
tp1371
sg7
F11871.832594156265
sg8
I1000
sg9
I681
sa(dp1372
g5
(F0.378
F0.894
F0.578
I833
I0
tp1373
sg7
F11890.306091070175
sg8
I1000
sg9
I682
sa(dp1374
g5
(F0.378
F0.898
F0.578
I836
I0
tp1375
sg7
F11908.751847982407
sg8
I1000
sg9
I683
sa(dp1376
g5
(F0.378
F0.895
F0.577
I834
I0
tp1377
sg7
F11927.09706902504
sg8
I1000
sg9
I684
sa(dp1378
g5
(F0.378
F0.892
F0.579
I832
I0
tp1379
sg7
F11945.573043107986
sg8
I1000
sg9
I685
sa(dp1380
g5
(F0.378
F0.893
F0.58
I836
I0
tp1381
sg7
F11964.07338309288
sg8
I1000
sg9
I686
sa(dp1382
g5
(F0.378
F0.896
F0.581
I840
I0
tp1383
sg7
F11982.632949113846
sg8
I1000
sg9
I687
sa(dp1384
g5
(F0.378
F0.896
F0.58
I845
I0
tp1385
sg7
F12001.137151956558
sg8
I1000
sg9
I688
sa(dp1386
g5
(F0.378
F0.896
F0.58
I846
I0
tp1387
sg7
F12019.626012086868
sg8
I1000
sg9
I689
sa(dp1388
g5
(F0.378
F0.899
F0.58
I848
I0
tp1389
sg7
F12037.948287963867
sg8
I1000
sg9
I690
sa(dp1390
g5
(F0.378
F0.903
F0.581
I853
I0
tp1391
sg7
F12056.396320104599
sg8
I1000
sg9
I691
sa(dp1392
g5
(F0.378
F0.902
F0.582
I850
I0
tp1393
sg7
F12074.867486000061
sg8
I1000
sg9
I692
sa(dp1394
g5
(F0.378
F0.906
F0.582
I855
I0
tp1395
sg7
F12093.265902996063
sg8
I1000
sg9
I693
sa(dp1396
g5
(F0.378
F0.91
F0.585
I849
I0
tp1397
sg7
F12111.674278020859
sg8
I1000
sg9
I694
sa(dp1398
g5
(F0.378
F0.914
F0.586
I852
I0
tp1399
sg7
F12130.106238126755
sg8
I1000
sg9
I695
sa(dp1400
g5
(F0.378
F0.907
F0.586
I855
I0
tp1401
sg7
F12148.703611135483
sg8
I1000
sg9
I696
sa(dp1402
g5
(F0.378
F0.904
F0.582
I841
I0
tp1403
sg7
F12168.638834953308
sg8
I1000
sg9
I697
sa(dp1404
g5
(F0.378
F0.905
F0.584
I840
I0
tp1405
sg7
F12187.087752103806
sg8
I1000
sg9
I698
sa(dp1406
g5
(F0.378
F0.889
F0.581
I829
I0
tp1407
sg7
F12205.464349031448
sg8
I1000
sg9
I699
sa(dp1408
g5
(F0.378
F0.897
F0.581
I835
I0
tp1409
sg7
F12223.917171001434
sg8
I1000
sg9
I700
sa(dp1410
g5
(F0.378
F0.889
F0.581
I832
I0
tp1411
sg7
F12242.358072042465
sg8
I1000
sg9
I701
sa(dp1412
g5
(F0.378
F0.891
F0.581
I832
I0
tp1413
sg7
F12260.775737047195
sg8
I1000
sg9
I702
sa(dp1414
g5
(F0.378
F0.894
F0.581
I835
I0
tp1415
sg7
F12279.253427028656
sg8
I1000
sg9
I703
sa(dp1416
g5
(F0.378
F0.891
F0.583
I835
I0
tp1417
sg7
F12297.708125114441
sg8
I1000
sg9
I704
sa(dp1418
g5
(F0.378
F0.89
F0.582
I841
I0
tp1419
sg7
F12316.220881938934
sg8
I1000
sg9
I705
sa(dp1420
g5
(F0.378
F0.898
F0.582
I846
I0
tp1421
sg7
F12334.749099969864
sg8
I1000
sg9
I706
sa(dp1422
g5
(F0.378
F0.9
F0.582
I851
I0
tp1423
sg7
F12353.236120939255
sg8
I1000
sg9
I707
sa(dp1424
g5
(F0.378
F0.9
F0.585
I850
I0
tp1425
sg7
F12371.670115947723
sg8
I1000
sg9
I708
sa(dp1426
g5
(F0.378
F0.909
F0.585
I852
I0
tp1427
sg7
F12390.300546169281
sg8
I1000
sg9
I709
sa(dp1428
g5
(F0.378
F0.915
F0.586
I854
I0
tp1429
sg7
F12408.859451055527
sg8
I1000
sg9
I710
sa(dp1430
g5
(F0.378
F0.909
F0.587
I856
I0
tp1431
sg7
F12427.409564971924
sg8
I1000
sg9
I711
sa(dp1432
g5
(F0.378
F0.915
F0.586
I859
I0
tp1433
sg7
F12445.8277490139
sg8
I1000
sg9
I712
sa(dp1434
g5
(F0.378
F0.907
F0.586
I861
I0
tp1435
sg7
F12464.26995897293
sg8
I1000
sg9
I713
sa(dp1436
g5
(F0.378
F0.919
F0.586
I867
I0
tp1437
sg7
F12482.81841802597
sg8
I1000
sg9
I714
sa(dp1438
g5
(F0.378
F0.913
F0.587
I868
I0
tp1439
sg7
F12501.337680101395
sg8
I1000
sg9
I715
sa(dp1440
g5
(F0.378
F0.914
F0.587
I869
I0
tp1441
sg7
F12519.805392026901
sg8
I1000
sg9
I716
sa(dp1442
g5
(F0.378
F0.911
F0.585
I866
I0
tp1443
sg7
F12538.257542133331
sg8
I1000
sg9
I717
sa(dp1444
g5
(F0.378
F0.914
F0.585
I870
I0
tp1445
sg7
F12556.90267109871
sg8
I1000
sg9
I718
sa(dp1446
g5
(F0.378
F0.915
F0.585
I876
I0
tp1447
sg7
F12575.508159160614
sg8
I1000
sg9
I719
sa(dp1448
g5
(F0.378
F0.911
F0.587
I873
I0
tp1449
sg7
F12594.14136004448
sg8
I1000
sg9
I720
sa(dp1450
g5
(F0.378
F0.913
F0.587
I874
I0
tp1451
sg7
F12612.726726055145
sg8
I1000
sg9
I721
sa(dp1452
g5
(F0.378
F0.919
F0.586
I877
I0
tp1453
sg7
F12631.168458938599
sg8
I1000
sg9
I722
sa(dp1454
g5
(F0.378
F0.914
F0.587
I878
I0
tp1455
sg7
F12649.765830039978
sg8
I1000
sg9
I723
sa(dp1456
g5
(F0.378
F0.926
F0.587
I880
I0
tp1457
sg7
F12668.277709960938
sg8
I1000
sg9
I724
sa(dp1458
g5
(F0.378
F0.927
F0.586
I886
I0
tp1459
sg7
F12686.80577301979
sg8
I1000
sg9
I725
sa(dp1460
g5
(F0.378
F0.94
F0.586
I892
I0
tp1461
sg7
F12705.417672157288
sg8
I1000
sg9
I726
sa(dp1462
g5
(F0.378
F0.936
F0.587
I897
I0
tp1463
sg7
F12723.979578018188
sg8
I1000
sg9
I727
sa(dp1464
g5
(F0.378
F0.93
F0.584
I885
I0
tp1465
sg7
F12742.487374067307
sg8
I1000
sg9
I728
sa(dp1466
g5
(F0.378
F0.926
F0.581
I884
I0
tp1467
sg7
F12761.003332138062
sg8
I1000
sg9
I729
sa(dp1468
g5
(F0.378
F0.934
F0.581
I885
I0
tp1469
sg7
F12781.142542123795
sg8
I1000
sg9
I730
sa(dp1470
g5
(F0.378
F0.931
F0.58
I885
I0
tp1471
sg7
F12799.689962148666
sg8
I1000
sg9
I731
sa(dp1472
g5
(F0.378
F0.936
F0.579
I877
I0
tp1473
sg7
F12818.261063098907
sg8
I1000
sg9
I732
sa(dp1474
g5
(F0.378
F0.934
F0.579
I878
I0
tp1475
sg7
F12836.623640060425
sg8
I1000
sg9
I733
sa(dp1476
g5
(F0.378
F0.941
F0.58
I882
I0
tp1477
sg7
F12855.037234067917
sg8
I1000
sg9
I734
sa(dp1478
g5
(F0.378
F0.941
F0.579
I884
I0
tp1479
sg7
F12873.51377415657
sg8
I1000
sg9
I735
sa(dp1480
g5
(F0.378
F0.933
F0.579
I880
I0
tp1481
sg7
F12891.980541944504
sg8
I1000
sg9
I736
sa(dp1482
g5
(F0.378
F0.929
F0.579
I882
I0
tp1483
sg7
F12910.627591133118
sg8
I1000
sg9
I737
sa(dp1484
g5
(F0.378
F0.923
F0.575
I865
I0
tp1485
sg7
F12929.028053998947
sg8
I1000
sg9
I738
sa(dp1486
g5
(F0.378
F0.918
F0.568
I843
I0
tp1487
sg7
F12947.363279104233
sg8
I1000
sg9
I739
sa(dp1488
g5
(F0.378
F0.898
F0.57
I831
I0
tp1489
sg7
F12965.864730119705
sg8
I1000
sg9
I740
sa(dp1490
g5
(F0.378
F0.905
F0.57
I833
I0
tp1491
sg7
F12984.371464967728
sg8
I1000
sg9
I741
sa(dp1492
g5
(F0.379
F0.907
F0.569
I836
I0
tp1493
sg7
F13002.89388513565
sg8
I1000
sg9
I742
sa(dp1494
g5
(F0.379
F0.903
F0.569
I841
I0
tp1495
sg7
F13021.333973169327
sg8
I1000
sg9
I743
sa(dp1496
g5
(F0.379
F0.912
F0.568
I845
I0
tp1497
sg7
F13039.759899139404
sg8
I1000
sg9
I744
sa(dp1498
g5
(F0.379
F0.893
F0.569
I830
I0
tp1499
sg7
F13058.23307299614
sg8
I1000
sg9
I745
sa(dp1500
g5
(F0.379
F0.899
F0.568
I834
I0
tp1501
sg7
F13076.714735984802
sg8
I1000
sg9
I746
sa(dp1502
g5
(F0.379
F0.903
F0.569
I837
I0
tp1503
sg7
F13095.249621152878
sg8
I1000
sg9
I747
sa(dp1504
g5
(F0.379
F0.904
F0.569
I845
I0
tp1505
sg7
F13113.771623134613
sg8
I1000
sg9
I748
sa(dp1506
g5
(F0.379
F0.898
F0.571
I837
I0
tp1507
sg7
F13132.215625047684
sg8
I1000
sg9
I749
sa(dp1508
g5
(F0.379
F0.899
F0.571
I838
I0
tp1509
sg7
F13150.788788080215
sg8
I1000
sg9
I750
sa(dp1510
g5
(F0.379
F0.901
F0.569
I842
I0
tp1511
sg7
F13169.228574991226
sg8
I1000
sg9
I751
sa(dp1512
g5
(F0.379
F0.899
F0.568
I842
I0
tp1513
sg7
F13187.698938131332
sg8
I1000
sg9
I752
sa(dp1514
g5
(F0.379
F0.905
F0.567
I845
I0
tp1515
sg7
F13206.221987009048
sg8
I1000
sg9
I753
sa(dp1516
g5
(F0.379
F0.909
F0.568
I849
I0
tp1517
sg7
F13224.708594083786
sg8
I1000
sg9
I754
sa(dp1518
g5
(F0.379
F0.901
F0.566
I846
I0
tp1519
sg7
F13243.127058029175
sg8
I1000
sg9
I755
sa(dp1520
g5
(F0.379
F0.902
F0.567
I851
I0
tp1521
sg7
F13261.701985120773
sg8
I1000
sg9
I756
sa(dp1522
g5
(F0.379
F0.9
F0.569
I848
I0
tp1523
sg7
F13280.141373157501
sg8
I1000
sg9
I757
sa(dp1524
g5
(F0.379
F0.897
F0.569
I848
I0
tp1525
sg7
F13298.707523107529
sg8
I1000
sg9
I758
sa(dp1526
g5
(F0.379
F0.9
F0.569
I849
I0
tp1527
sg7
F13317.1396920681
sg8
I1000
sg9
I759
sa(dp1528
g5
(F0.379
F0.901
F0.57
I848
I0
tp1529
sg7
F13335.60210108757
sg8
I1000
sg9
I760
sa(dp1530
g5
(F0.379
F0.896
F0.57
I850
I0
tp1531
sg7
F13354.245298147202
sg8
I1000
sg9
I761
sa(dp1532
g5
(F0.379
F0.91
F0.57
I858
I0
tp1533
sg7
F13372.716043949127
sg8
I1000
sg9
I762
sa(dp1534
g5
(F0.379
F0.91
F0.57
I856
I0
tp1535
sg7
F13392.769334077835
sg8
I1000
sg9
I763
sa(dp1536
g5
(F0.379
F0.912
F0.569
I856
I0
tp1537
sg7
F13411.191287994385
sg8
I1000
sg9
I764
sa(dp1538
g5
(F0.379
F0.911
F0.569
I856
I0
tp1539
sg7
F13429.5937230587
sg8
I1000
sg9
I765
sa(dp1540
g5
(F0.379
F0.92
F0.569
I859
I0
tp1541
sg7
F13447.99540901184
sg8
I1000
sg9
I766
sa(dp1542
g5
(F0.379
F0.918
F0.569
I864
I0
tp1543
sg7
F13466.59031701088
sg8
I1000
sg9
I767
sa(dp1544
g5
(F0.379
F0.921
F0.568
I866
I0
tp1545
sg7
F13485.09229016304
sg8
I1000
sg9
I768
sa(dp1546
g5
(F0.379
F0.919
F0.568
I870
I0
tp1547
sg7
F13503.650640964508
sg8
I1000
sg9
I769
sa(dp1548
g5
(F0.379
F0.926
F0.568
I871
I0
tp1549
sg7
F13522.230072021484
sg8
I1000
sg9
I770
sa(dp1550
g5
(F0.379
F0.927
F0.566
I876
I0
tp1551
sg7
F13540.795803070068
sg8
I1000
sg9
I771
sa(dp1552
g5
(F0.379
F0.921
F0.564
I870
I0
tp1553
sg7
F13559.16797709465
sg8
I1000
sg9
I772
sa(dp1554
g5
(F0.379
F0.92
F0.563
I871
I0
tp1555
sg7
F13577.559139966965
sg8
I1000
sg9
I773
sa(dp1556
g5
(F0.379
F0.926
F0.563
I873
I0
tp1557
sg7
F13596.309190034866
sg8
I1000
sg9
I774
sa(dp1558
g5
(F0.379
F0.931
F0.562
I881
I0
tp1559
sg7
F13614.806736946106
sg8
I1000
sg9
I775
sa(dp1560
g5
(F0.379
F0.93
F0.562
I882
I0
tp1561
sg7
F13633.163923025131
sg8
I1000
sg9
I776
sa(dp1562
g5
(F0.379
F0.927
F0.562
I879
I0
tp1563
sg7
F13651.800768136978
sg8
I1000
sg9
I777
sa(dp1564
g5
(F0.379
F0.93
F0.562
I881
I0
tp1565
sg7
F13670.227303028107
sg8
I1000
sg9
I778
sa(dp1566
g5
(F0.379
F0.938
F0.563
I883
I0
tp1567
sg7
F13688.720186948776
sg8
I1000
sg9
I779
sa(dp1568
g5
(F0.379
F0.932
F0.563
I885
I0
tp1569
sg7
F13707.288902044296
sg8
I1000
sg9
I780
sa(dp1570
g5
(F0.379
F0.936
F0.562
I891
I0
tp1571
sg7
F13725.77356004715
sg8
I1000
sg9
I781
sa(dp1572
g5
(F0.379
F0.934
F0.562
I895
I0
tp1573
sg7
F13744.287565946579
sg8
I1000
sg9
I782
sa(dp1574
g5
(F0.379
F0.927
F0.562
I900
I0
tp1575
sg7
F13762.883271932602
sg8
I1000
sg9
I783
sa(dp1576
g5
(F0.379
F0.932
F0.562
I902
I0
tp1577
sg7
F13781.598400115967
sg8
I1000
sg9
I784
sa(dp1578
g5
(F0.379
F0.939
F0.561
I908
I0
tp1579
sg7
F13800.176730155945
sg8
I1000
sg9
I785
sa(dp1580
g5
(F0.379
F0.935
F0.562
I907
I0
tp1581
sg7
F13818.591809988022
sg8
I1000
sg9
I786
sa(dp1582
g5
(F0.379
F0.935
F0.562
I910
I0
tp1583
sg7
F13837.076112985611
sg8
I1000
sg9
I787
sa(dp1584
g5
(F0.379
F0.937
F0.562
I912
I0
tp1585
sg7
F13855.555950164795
sg8
I1000
sg9
I788
sa(dp1586
g5
(F0.379
F0.939
F0.561
I916
I0
tp1587
sg7
F13874.245141029358
sg8
I1000
sg9
I789
sa(dp1588
g5
(F0.379
F0.94
F0.562
I917
I0
tp1589
sg7
F13892.796298027039
sg8
I1000
sg9
I790
sa(dp1590
g5
(F0.379
F0.947
F0.563
I920
I0
tp1591
sg7
F13911.367336034775
sg8
I1000
sg9
I791
sa(dp1592
g5
(F0.379
F0.939
F0.563
I911
I0
tp1593
sg7
F13929.689661979675
sg8
I1000
sg9
I792
sa(dp1594
g5
(F0.379
F0.939
F0.564
I903
I0
tp1595
sg7
F13948.23046207428
sg8
I1000
sg9
I793
sa(dp1596
g5
(F0.379
F0.943
F0.564
I910
I0
tp1597
sg7
F13966.788269042969
sg8
I1000
sg9
I794
sa(dp1598
g5
(F0.379
F0.949
F0.563
I910
I0
tp1599
sg7
F13985.296920061111
sg8
I1000
sg9
I795
sa(dp1600
g5
(F0.379
F0.953
F0.563
I911
I0
tp1601
sg7
F14005.513980150223
sg8
I1000
sg9
I796
sa(dp1602
g5
(F0.379
F0.947
F0.563
I912
I0
tp1603
sg7
F14024.132406949997
sg8
I1000
sg9
I797
sa(dp1604
g5
(F0.381
F0.95
F0.563
I914
I0
tp1605
sg7
F14042.740806102753
sg8
I1000
sg9
I798
sa(dp1606
g5
(F0.381
F0.948
F0.566
I904
I0
tp1607
sg7
F14061.310781002045
sg8
I1000
sg9
I799
sa(dp1608
g5
(F0.381
F0.944
F0.566
I904
I0
tp1609
sg7
F14079.89237999916
sg8
I1000
sg9
I800
sa(dp1610
g5
(F0.381
F0.946
F0.567
I908
I0
tp1611
sg7
F14098.405818939209
sg8
I1000
sg9
I801
sa(dp1612
g5
(F0.381
F0.949
F0.567
I912
I0
tp1613
sg7
F14116.972145080566
sg8
I1000
sg9
I802
sa(dp1614
g5
(F0.381
F0.948
F0.567
I913
I0
tp1615
sg7
F14135.656823158264
sg8
I1000
sg9
I803
sa(dp1616
g5
(F0.381
F0.951
F0.567
I915
I0
tp1617
sg7
F14154.247919082642
sg8
I1000
sg9
I804
sa(dp1618
g5
(F0.381
F0.956
F0.567
I919
I0
tp1619
sg7
F14172.877840042114
sg8
I1000
sg9
I805
sa(dp1620
g5
(F0.381
F0.957
F0.57
I920
I0
tp1621
sg7
F14191.528859138489
sg8
I1000
sg9
I806
sa(dp1622
g5
(F0.381
F0.951
F0.569
I918
I0
tp1623
sg7
F14210.10373711586
sg8
I1000
sg9
I807
sa(dp1624
g5
(F0.381
F0.968
F0.568
I916
I0
tp1625
sg7
F14228.728394031525
sg8
I1000
sg9
I808
sa(dp1626
g5
(F0.381
F0.963
F0.569
I916
I0
tp1627
sg7
F14247.2071890831
sg8
I1000
sg9
I809
sa(dp1628
g5
(F0.381
F0.965
F0.568
I918
I0
tp1629
sg7
F14265.71521806717
sg8
I1000
sg9
I810
sa(dp1630
g5
(F0.381
F0.962
F0.567
I919
I0
tp1631
sg7
F14284.241600036621
sg8
I1000
sg9
I811
sa(dp1632
g5
(F0.381
F0.964
F0.568
I922
I0
tp1633
sg7
F14302.728639125824
sg8
I1000
sg9
I812
sa(dp1634
g5
(F0.381
F0.971
F0.568
I927
I0
tp1635
sg7
F14321.203866004944
sg8
I1000
sg9
I813
sa(dp1636
g5
(F0.381
F0.965
F0.568
I927
I0
tp1637
sg7
F14339.546885967255
sg8
I1000
sg9
I814
sa(dp1638
g5
(F0.381
F0.974
F0.566
I925
I0
tp1639
sg7
F14358.01817202568
sg8
I1000
sg9
I815
sa(dp1640
g5
(F0.381
F0.978
F0.565
I927
I0
tp1641
sg7
F14376.434370994568
sg8
I1000
sg9
I816
sa(dp1642
g5
(F0.381
F0.973
F0.564
I923
I0
tp1643
sg7
F14394.90780711174
sg8
I1000
sg9
I817
sa(dp1644
g5
(F0.381
F0.978
F0.565
I928
I0
tp1645
sg7
F14413.382905960083
sg8
I1000
sg9
I818
sa(dp1646
g5
(F0.381
F0.974
F0.565
I931
I0
tp1647
sg7
F14431.837399959564
sg8
I1000
sg9
I819
sa(dp1648
g5
(F0.381
F0.975
F0.565
I928
I0
tp1649
sg7
F14450.17132306099
sg8
I1000
sg9
I820
sa(dp1650
g5
(F0.381
F0.977
F0.565
I932
I0
tp1651
sg7
F14468.591731071472
sg8
I1000
sg9
I821
sa(dp1652
g5
(F0.381
F0.968
F0.569
I926
I0
tp1653
sg7
F14486.907091140747
sg8
I1000
sg9
I822
sa(dp1654
g5
(F0.381
F0.968
F0.567
I918
I0
tp1655
sg7
F14505.235236167908
sg8
I1000
sg9
I823
sa(dp1656
g5
(F0.381
F0.973
F0.567
I922
I0
tp1657
sg7
F14523.58691906929
sg8
I1000
sg9
I824
sa(dp1658
g5
(F0.381
F0.978
F0.567
I925
I0
tp1659
sg7
F14542.050470113754
sg8
I1000
sg9
I825
sa(dp1660
g5
(F0.381
F0.975
F0.567
I923
I0
tp1661
sg7
F14560.507815122604
sg8
I1000
sg9
I826
sa(dp1662
g5
(F0.381
F0.977
F0.567
I925
I0
tp1663
sg7
F14578.962351083755
sg8
I1000
sg9
I827
sa(dp1664
g5
(F0.381
F0.981
F0.567
I929
I0
tp1665
sg7
F14597.472011089325
sg8
I1000
sg9
I828
sa(dp1666
g5
(F0.381
F0.981
F0.567
I934
I0
tp1667
sg7
F14617.380293130875
sg8
I1000
sg9
I829
sa(dp1668
g5
(F0.381
F0.983
F0.568
I933
I0
tp1669
sg7
F14635.879799127579
sg8
I1000
sg9
I830
sa(dp1670
g5
(F0.381
F0.982
F0.568
I930
I0
tp1671
sg7
F14654.192712068558
sg8
I1000
sg9
I831
sa(dp1672
g5
(F0.381
F0.985
F0.568
I932
I0
tp1673
sg7
F14672.672621011734
sg8
I1000
sg9
I832
sa(dp1674
g5
(F0.381
F0.983
F0.568
I932
I0
tp1675
sg7
F14691.074653148651
sg8
I1000
sg9
I833
sa(dp1676
g5
(F0.381
F0.988
F0.568
I937
I0
tp1677
sg7
F14709.627210140228
sg8
I1000
sg9
I834
sa(dp1678
g5
(F0.381
F0.988
F0.568
I945
I0
tp1679
sg7
F14728.072948932648
sg8
I1000
sg9
I835
sa(dp1680
g5
(F0.381
F0.989
F0.568
I949
I0
tp1681
sg7
F14746.53191614151
sg8
I1000
sg9
I836
sa(dp1682
g5
(F0.381
F0.981
F0.572
I938
I0
tp1683
sg7
F14764.924395084381
sg8
I1000
sg9
I837
sa(dp1684
g5
(F0.381
F0.982
F0.572
I941
I0
tp1685
sg7
F14783.568896055222
sg8
I1000
sg9
I838
sa(dp1686
g5
(F0.381
F0.976
F0.574
I933
I0
tp1687
sg7
F14801.995316028595
sg8
I1000
sg9
I839
sa(dp1688
g5
(F0.381
F0.983
F0.573
I937
I0
tp1689
sg7
F14820.484352111816
sg8
I1000
sg9
I840
sa(dp1690
g5
(F0.381
F0.987
F0.573
I945
I0
tp1691
sg7
F14838.875499010086
sg8
I1000
sg9
I841
sa(dp1692
g5
(F0.381
F0.987
F0.573
I949
I0
tp1693
sg7
F14857.433855056763
sg8
I1000
sg9
I842
sa(dp1694
g5
(F0.381
F0.982
F0.571
I945
I0
tp1695
sg7
F14875.966711044312
sg8
I1000
sg9
I843
sa(dp1696
g5
(F0.381
F0.983
F0.572
I942
I0
tp1697
sg7
F14894.586162090302
sg8
I1000
sg9
I844
sa(dp1698
g5
(F0.381
F0.981
F0.572
I946
I0
tp1699
sg7
F14913.096111059189
sg8
I1000
sg9
I845
sa(dp1700
g5
(F0.381
F0.983
F0.571
I951
I0
tp1701
sg7
F14931.715104103088
sg8
I1000
sg9
I846
sa(dp1702
g5
(F0.381
F0.987
F0.571
I949
I0
tp1703
sg7
F14950.20400094986
sg8
I1000
sg9
I847
sa(dp1704
g5
(F0.381
F0.981
F0.572
I950
I0
tp1705
sg7
F14968.855918169022
sg8
I1000
sg9
I848
sa(dp1706
g5
(F0.381
F0.987
F0.572
I954
I0
tp1707
sg7
F14987.389738082886
sg8
I1000
sg9
I849
sa(dp1708
g5
(F0.381
F0.988
F0.571
I959
I0
tp1709
sg7
F15005.89326095581
sg8
I1000
sg9
I850
sa(dp1710
g5
(F0.381
F0.993
F0.57
I965
I0
tp1711
sg7
F15024.536674976349
sg8
I1000
sg9
I851
sa(dp1712
g5
(F0.381
F0.99
F0.57
I964
I0
tp1713
sg7
F15043.085831165314
sg8
I1000
sg9
I852
sa(dp1714
g5
(F0.381
F0.994
F0.57
I966
I0
tp1715
sg7
F15061.626543998718
sg8
I1000
sg9
I853
sa(dp1716
g5
(F0.381
F0.989
F0.57
I969
I0
tp1717
sg7
F15080.233312129974
sg8
I1000
sg9
I854
sa(dp1718
g5
(F0.381
F0.99
F0.57
I970
I0
tp1719
sg7
F15098.918094158173
sg8
I1000
sg9
I855
sa(dp1720
g5
(F0.381
F0.987
F0.569
I976
I0
tp1721
sg7
F15117.477242946625
sg8
I1000
sg9
I856
sa(dp1722
g5
(F0.381
F0.993
F0.569
I977
I0
tp1723
sg7
F15136.09243798256
sg8
I1000
sg9
I857
sa(dp1724
g5
(F0.381
F0.988
F0.569
I976
I0
tp1725
sg7
F15154.697000980377
sg8
I1000
sg9
I858
sa(dp1726
g5
(F0.381
F0.986
F0.568
I973
I0
tp1727
sg7
F15173.212965965271
sg8
I1000
sg9
I859
sa(dp1728
g5
(F0.381
F0.991
F0.566
I973
I0
tp1729
sg7
F15191.821651935577
sg8
I1000
sg9
I860
sa(dp1730
g5
(F0.381
F0.991
F0.566
I972
I0
tp1731
sg7
F15210.467206001282
sg8
I1000
sg9
I861
sa(dp1732
g5
(F0.381
F0.997
F0.566
I975
I0
tp1733
sg7
F15230.691971063614
sg8
I1000
sg9
I862
sa(dp1734
g5
(F0.381
F0.989
F0.566
I966
I0
tp1735
sg7
F15249.249352931976
sg8
I1000
sg9
I863
sa(dp1736
g5
(F0.381
F0.987
F0.567
I959
I0
tp1737
sg7
F15267.77377295494
sg8
I1000
sg9
I864
sa(dp1738
g5
(F0.381
F0.988
F0.569
I959
I0
tp1739
sg7
F15286.468877077103
sg8
I1000
sg9
I865
sa(dp1740
g5
(F0.381
F0.988
F0.57
I961
I0
tp1741
sg7
F15305.08273100853
sg8
I1000
sg9
I866
sa(dp1742
g5
(F0.381
F0.989
F0.57
I963
I0
tp1743
sg7
F15323.73183298111
sg8
I1000
sg9
I867
sa(dp1744
g5
(F0.381
F0.995
F0.57
I969
I0
tp1745
sg7
F15342.31589102745
sg8
I1000
sg9
I868
sa(dp1746
g5
(F0.381
F0.995
F0.569
I969
I0
tp1747
sg7
F15360.828984975815
sg8
I1000
sg9
I869
sa(dp1748
g5
(F0.381
F0.993
F0.57
I970
I0
tp1749
sg7
F15379.564069032669
sg8
I1000
sg9
I870
sa(dp1750
g5
(F0.381
F0.992
F0.572
I966
I0
tp1751
sg7
F15398.331159114838
sg8
I1000
sg9
I871
sa(dp1752
g5
(F0.381
F0.993
F0.572
I970
I0
tp1753
sg7
F15417.028262138367
sg8
I1000
sg9
I872
sa(dp1754
g5
(F0.381
F0.993
F0.571
I967
I0
tp1755
sg7
F15435.662181138992
sg8
I1000
sg9
I873
sa(dp1756
g5
(F0.381
F0.989
F0.572
I969
I0
tp1757
sg7
F15454.094553947449
sg8
I1000
sg9
I874
sa(dp1758
g5
(F0.381
F0.997
F0.57
I969
I0
tp1759
sg7
F15472.769968986511
sg8
I1000
sg9
I875
sa(dp1760
g5
(F0.381
F0.989
F0.571
I972
I0
tp1761
sg7
F15491.443002939224
sg8
I1000
sg9
I876
sa(dp1762
g5
(F0.381
F0.998
F0.57
I977
I0
tp1763
sg7
F15509.90484714508
sg8
I1000
sg9
I877
sa(dp1764
g5
(F0.381
F0.991
F0.57
I974
I0
tp1765
sg7
F15528.471405982971
sg8
I1000
sg9
I878
sa(dp1766
g5
(F0.381
F0.996
F0.571
I980
I0
tp1767
sg7
F15547.25252699852
sg8
I1000
sg9
I879
sa(dp1768
g5
(F0.381
F0.995
F0.568
I966
I0
tp1769
sg7
F15565.709881067276
sg8
I1000
sg9
I880
sa(dp1770
g5
(F0.381
F0.987
F0.568
I958
I0
tp1771
sg7
F15584.156873941422
sg8
I1000
sg9
I881
sa(dp1772
g5
(F0.381
F0.993
F0.568
I963
I0
tp1773
sg7
F15602.939069986343
sg8
I1000
sg9
I882
sa(dp1774
g5
(F0.381
F0.982
F0.569
I954
I0
tp1775
sg7
F15621.571974992752
sg8
I1000
sg9
I883
sa(dp1776
g5
(F0.381
F0.979
F0.569
I955
I0
tp1777
sg7
F15640.092668056488
sg8
I1000
sg9
I884
sa(dp1778
g5
(F0.382
F0.981
F0.571
I954
I0
tp1779
sg7
F15658.699177026749
sg8
I1000
sg9
I885
sa(dp1780
g5
(F0.382
F0.981
F0.569
I955
I0
tp1781
sg7
F15677.19960308075
sg8
I1000
sg9
I886
sa(dp1782
g5
(F0.382
F0.977
F0.568
I955
I0
tp1783
sg7
F15695.660567045212
sg8
I1000
sg9
I887
sa(dp1784
g5
(F0.382
F0.974
F0.569
I957
I0
tp1785
sg7
F15714.140788078308
sg8
I1000
sg9
I888
sa(dp1786
g5
(F0.382
F0.977
F0.569
I959
I0
tp1787
sg7
F15732.698761940002
sg8
I1000
sg9
I889
sa(dp1788
g5
(F0.382
F0.979
F0.569
I962
I0
tp1789
sg7
F15751.236777067184
sg8
I1000
sg9
I890
sa(dp1790
g5
(F0.382
F0.967
F0.563
I950
I0
tp1791
sg7
F15769.663900136948
sg8
I1000
sg9
I891
sa(dp1792
g5
(F0.382
F0.971
F0.564
I952
I0
tp1793
sg7
F15788.185899019241
sg8
I1000
sg9
I892
sa(dp1794
g5
(F0.382
F0.974
F0.563
I954
I0
tp1795
sg7
F15806.784269094467
sg8
I1000
sg9
I893
sa(dp1796
g5
(F0.382
F0.971
F0.564
I955
I0
tp1797
sg7
F15825.200540065765
sg8
I1000
sg9
I894
sa(dp1798
g5
(F0.382
F0.97
F0.564
I951
I0
tp1799
sg7
F15845.251177072525
sg8
I1000
sg9
I895
sa(dp1800
g5
(F0.382
F0.97
F0.564
I955
I0
tp1801
sg7
F15863.853069067001
sg8
I1000
sg9
I896
sa(dp1802
g5
(F0.382
F0.976
F0.563
I958
I0
tp1803
sg7
F15882.638978004456
sg8
I1000
sg9
I897
sa(dp1804
g5
(F0.382
F0.97
F0.563
I961
I0
tp1805
sg7
F15901.233665943146
sg8
I1000
sg9
I898
sa(dp1806
g5
(F0.382
F0.977
F0.563
I964
I0
tp1807
sg7
F15919.907564163208
sg8
I1000
sg9
I899
sa(dp1808
g5
(F0.382
F0.972
F0.566
I959
I0
tp1809
sg7
F15938.52142214775
sg8
I1000
sg9
I900
sa(dp1810
g5
(F0.382
F0.969
F0.566
I961
I0
tp1811
sg7
F15957.028004169464
sg8
I1000
sg9
I901
sa(dp1812
g5
(F0.382
F0.97
F0.566
I960
I0
tp1813
sg7
F15975.732892990112
sg8
I1000
sg9
I902
sa(dp1814
g5
(F0.382
F0.969
F0.566
I963
I0
tp1815
sg7
F15994.387000083923
sg8
I1000
sg9
I903
sa(dp1816
g5
(F0.382
F0.968
F0.566
I958
I0
tp1817
sg7
F16012.833709955215
sg8
I1000
sg9
I904
sa(dp1818
g5
(F0.382
F0.961
F0.566
I948
I0
tp1819
sg7
F16031.293308019638
sg8
I1000
sg9
I905
sa(dp1820
g5
(F0.382
F0.961
F0.565
I945
I0
tp1821
sg7
F16049.723587989807
sg8
I1000
sg9
I906
sa(dp1822
g5
(F0.382
F0.963
F0.566
I949
I0
tp1823
sg7
F16068.328039169312
sg8
I1000
sg9
I907
sa(dp1824
g5
(F0.382
F0.957
F0.565
I938
I0
tp1825
sg7
F16086.907412052155
sg8
I1000
sg9
I908
sa(dp1826
g5
(F0.382
F0.96
F0.565
I940
I0
tp1827
sg7
F16105.48805809021
sg8
I1000
sg9
I909
sa(dp1828
g5
(F0.382
F0.963
F0.563
I935
I0
tp1829
sg7
F16123.950827121735
sg8
I1000
sg9
I910
sa(dp1830
g5
(F0.382
F0.946
F0.564
I918
I0
tp1831
sg7
F16142.43839597702
sg8
I1000
sg9
I911
sa(dp1832
g5
(F0.382
F0.954
F0.564
I919
I0
tp1833
sg7
F16160.92229104042
sg8
I1000
sg9
I912
sa(dp1834
g5
(F0.382
F0.95
F0.564
I914
I0
tp1835
sg7
F16179.292274951935
sg8
I1000
sg9
I913
sa(dp1836
g5
(F0.382
F0.957
F0.564
I917
I0
tp1837
sg7
F16197.80480003357
sg8
I1000
sg9
I914
sa(dp1838
g5
(F0.382
F0.951
F0.564
I917
I0
tp1839
sg7
F16216.249941110611
sg8
I1000
sg9
I915
sa(dp1840
g5
(F0.382
F0.959
F0.564
I924
I0
tp1841
sg7
F16234.656155109406
sg8
I1000
sg9
I916
sa(dp1842
g5
(F0.382
F0.958
F0.564
I926
I0
tp1843
sg7
F16253.140105009079
sg8
I1000
sg9
I917
sa(dp1844
g5
(F0.382
F0.959
F0.562
I927
I0
tp1845
sg7
F16271.515357971191
sg8
I1000
sg9
I918
sa(dp1846
g5
(F0.382
F0.956
F0.561
I929
I0
tp1847
sg7
F16290.019418001175
sg8
I1000
sg9
I919
sa(dp1848
g5
(F0.382
F0.963
F0.561
I933
I0
tp1849
sg7
F16308.60499215126
sg8
I1000
sg9
I920
sa(dp1850
g5
(F0.382
F0.96
F0.56
I934
I0
tp1851
sg7
F16327.088708162308
sg8
I1000
sg9
I921
sa(dp1852
g5
(F0.382
F0.964
F0.561
I934
I0
tp1853
sg7
F16345.534887075424
sg8
I1000
sg9
I922
sa(dp1854
g5
(F0.382
F0.965
F0.561
I930
I0
tp1855
sg7
F16363.985773086548
sg8
I1000
sg9
I923
sa(dp1856
g5
(F0.382
F0.96
F0.565
I916
I0
tp1857
sg7
F16382.403419971466
sg8
I1000
sg9
I924
sa(dp1858
g5
(F0.382
F0.959
F0.565
I916
I0
tp1859
sg7
F16400.722974061966
sg8
I1000
sg9
I925
sa(dp1860
g5
(F0.382
F0.96
F0.564
I916
I0
tp1861
sg7
F16419.15799307823
sg8
I1000
sg9
I926
sa(dp1862
g5
(F0.382
F0.964
F0.563
I915
I0
tp1863
sg7
F16437.54993915558
sg8
I1000
sg9
I927
sa(dp1864
g5
(F0.382
F0.968
F0.564
I917
I0
tp1865
sg7
F16457.530863046646
sg8
I1000
sg9
I928
sa(dp1866
g5
(F0.382
F0.964
F0.564
I917
I0
tp1867
sg7
F16475.975651025772
sg8
I1000
sg9
I929
sa(dp1868
g5
(F0.382
F0.967
F0.563
I920
I0
tp1869
sg7
F16494.45763707161
sg8
I1000
sg9
I930
sa(dp1870
g5
(F0.382
F0.959
F0.562
I923
I0
tp1871
sg7
F16512.83662199974
sg8
I1000
sg9
I931
sa(dp1872
g5
(F0.382
F0.966
F0.562
I924
I0
tp1873
sg7
F16531.230319023132
sg8
I1000
sg9
I932
sa(dp1874
g5
(F0.382
F0.958
F0.562
I927
I0
tp1875
sg7
F16549.860062122345
sg8
I1000
sg9
I933
sa(dp1876
g5
(F0.382
F0.971
F0.562
I930
I0
tp1877
sg7
F16568.399487018585
sg8
I1000
sg9
I934
sa(dp1878
g5
(F0.382
F0.962
F0.562
I933
I0
tp1879
sg7
F16586.980165958405
sg8
I1000
sg9
I935
sa(dp1880
g5
(F0.382
F0.969
F0.561
I929
I0
tp1881
sg7
F16605.44082093239
sg8
I1000
sg9
I936
sa(dp1882
g5
(F0.382
F0.968
F0.561
I929
I0
tp1883
sg7
F16624.081602096558
sg8
I1000
sg9
I937
sa(dp1884
g5
(F0.382
F0.973
F0.56
I940
I0
tp1885
sg7
F16642.69984102249
sg8
I1000
sg9
I938
sa(dp1886
g5
(F0.382
F0.973
F0.561
I942
I0
tp1887
sg7
F16661.09240412712
sg8
I1000
sg9
I939
sa(dp1888
g5
(F0.382
F0.979
F0.559
I949
I0
tp1889
sg7
F16679.521672964096
sg8
I1000
sg9
I940
sa(dp1890
g5
(F0.382
F0.984
F0.559
I955
I0
tp1891
sg7
F16697.977515935898
sg8
I1000
sg9
I941
sa(dp1892
g5
(F0.382
F0.988
F0.559
I958
I0
tp1893
sg7
F16716.43867301941
sg8
I1000
sg9
I942
sa(dp1894
g5
(F0.382
F0.984
F0.557
I952
I0
tp1895
sg7
F16734.75878715515
sg8
I1000
sg9
I943
sa(dp1896
g5
(F0.382
F0.988
F0.557
I955
I0
tp1897
sg7
F16753.22325205803
sg8
I1000
sg9
I944
sa(dp1898
g5
(F0.382
F0.984
F0.559
I952
I0
tp1899
sg7
F16771.553284168243
sg8
I1000
sg9
I945
sa(dp1900
g5
(F0.382
F0.99
F0.559
I955
I0
tp1901
sg7
F16790.044033050537
sg8
I1000
sg9
I946
sa(dp1902
g5
(F0.382
F0.986
F0.56
I960
I0
tp1903
sg7
F16808.532611131668
sg8
I1000
sg9
I947
sa(dp1904
g5
(F0.382
F0.996
F0.56
I962
I0
tp1905
sg7
F16827.023728132248
sg8
I1000
sg9
I948
sa(dp1906
g5
(F0.382
F0.987
F0.56
I963
I0
tp1907
sg7
F16845.41923713684
sg8
I1000
sg9
I949
sa(dp1908
g5
(F0.382
F0.991
F0.561
I962
I0
tp1909
sg7
F16863.850023031235
sg8
I1000
sg9
I950
sa(dp1910
g5
(F0.382
F0.992
F0.559
I968
I0
tp1911
sg7
F16882.328159093857
sg8
I1000
sg9
I951
sa(dp1912
g5
(F0.382
F0.995
F0.558
I968
I0
tp1913
sg7
F16900.753510951996
sg8
I1000
sg9
I952
sa(dp1914
g5
(F0.382
F0.999
F0.558
I970
I0
tp1915
sg7
F16919.220952033997
sg8
I1000
sg9
I953
sa(dp1916
g5
(F0.382
F0.995
F0.556
I967
I0
tp1917
sg7
F16937.81401205063
sg8
I1000
sg9
I954
sa(dp1918
g5
(F0.382
F0.993
F0.556
I969
I0
tp1919
sg7
F16956.234382152557
sg8
I1000
sg9
I955
sa(dp1920
g5
(F0.382
F0.995
F0.556
I971
I0
tp1921
sg7
F16974.813143968582
sg8
I1000
sg9
I956
sa(dp1922
g5
(F0.382
F1.002
F0.556
I977
I0
tp1923
sg7
F16993.353492975235
sg8
I1000
sg9
I957
sa(dp1924
g5
(F0.382
F1.002
F0.556
I979
I0
tp1925
sg7
F17011.815289974213
sg8
I1000
sg9
I958
sa(dp1926
g5
(F0.382
F1.007
F0.555
I981
I0
tp1927
sg7
F17030.18688893318
sg8
I1000
sg9
I959
sa(dp1928
g5
(F0.382
F1.006
F0.555
I980
I0
tp1929
sg7
F17048.513015031815
sg8
I1000
sg9
I960
sa(dp1930
g5
(F0.382
F1.011
F0.555
I985
I0
tp1931
sg7
F17068.631866931915
sg8
I1000
sg9
I961
sa(dp1932
g5
(F0.382
F1.01
F0.555
I988
I0
tp1933
sg7
F17087.159536123276
sg8
I1000
sg9
I962
sa(dp1934
g5
(F0.382
F1.011
F0.555
I992
I0
tp1935
sg7
F17105.595176935196
sg8
I1000
sg9
I963
sa(dp1936
g5
(F0.382
F1.013
F0.555
I999
I0
tp1937
sg7
F17124.20425605774
sg8
I1000
sg9
I964
sa(dp1938
g5
(F0.382
F1.017
F0.555
I1000
I0
tp1939
sg7
F17142.808710098267
sg8
I1000
sg9
I965
sa(dp1940
g5
(F0.382
F1.011
F0.555
I1000
I0
tp1941
sg7
F17161.23431110382
sg8
I1000
sg9
I966
sa(dp1942
g5
(F0.382
F1.019
F0.557
I1000
I0
tp1943
sg7
F17179.662021160126
sg8
I1000
sg9
I967
sa(dp1944
g5
(F0.382
F1.011
F0.557
I997
I0
tp1945
sg7
F17198.074124097824
sg8
I1000
sg9
I968
sa(dp1946
g5
(F0.382
F1.014
F0.557
I1000
I0
tp1947
sg7
F17216.639590024948
sg8
I1000
sg9
I969
sa(dp1948
g5
(F0.382
F1.005
F0.556
I997
I0
tp1949
sg7
F17235.201966047287
sg8
I1000
sg9
I970
sa(dp1950
g5
(F0.382
F1.017
F0.556
I1000
I0
tp1951
sg7
F17253.753360033035
sg8
I1000
sg9
I971
sa(dp1952
g5
(F0.382
F1.001
F0.552
I982
I0
tp1953
sg7
F17272.138035058975
sg8
I1000
sg9
I972
sa(dp1954
g5
(F0.382
F1.011
F0.552
I987
I0
tp1955
sg7
F17290.7292239666
sg8
I1000
sg9
I973
sa(dp1956
g5
(F0.382
F1.009
F0.551
I990
I0
tp1957
sg7
F17309.168125152588
sg8
I1000
sg9
I974
sa(dp1958
g5
(F0.382
F1.012
F0.55
I992
I0
tp1959
sg7
F17327.729859113693
sg8
I1000
sg9
I975
sa(dp1960
g5
(F0.382
F1.008
F0.55
I993
I0
tp1961
sg7
F17346.185142040253
sg8
I1000
sg9
I976
sa(dp1962
g5
(F0.382
F1.019
F0.549
I995
I0
tp1963
sg7
F17364.62805199623
sg8
I1000
sg9
I977
sa(dp1964
g5
(F0.382
F1.011
F0.549
I994
I0
tp1965
sg7
F17383.132709026337
sg8
I1000
sg9
I978
sa(dp1966
g5
(F0.382
F1.016
F0.549
I996
I0
tp1967
sg7
F17401.7144010067
sg8
I1000
sg9
I979
sa(dp1968
g5
(F0.382
F1.013
F0.549
I998
I0
tp1969
sg7
F17420.356783151627
sg8
I1000
sg9
I980
sa(dp1970
g5
(F0.382
F1.012
F0.548
I1000
I0
tp1971
sg7
F17438.875180006027
sg8
I1000
sg9
I981
sa(dp1972
g5
(F0.382
F1.008
F0.549
I998
I0
tp1973
sg7
F17457.45023393631
sg8
I1000
sg9
I982
sa(dp1974
g5
(F0.382
F1.016
F0.549
I1000
I0
tp1975
sg7
F17475.980651140213
sg8
I1000
sg9
I983
sa(dp1976
g5
(F0.382
F1.012
F0.547
I1000
I0
tp1977
sg7
F17494.500432014465
sg8
I1000
sg9
I984
sa(dp1978
g5
(F0.382
F1.021
F0.548
I1000
I0
tp1979
sg7
F17512.987123966217
sg8
I1000
sg9
I985
sa(dp1980
g5
(F0.382
F1.021
F0.549
I999
I0
tp1981
sg7
F17531.465814113617
sg8
I1000
sg9
I986
sa(dp1982
g5
(F0.382
F1.025
F0.548
I1000
I0
tp1983
sg7
F17549.86846113205
sg8
I1000
sg9
I987
sa(dp1984
g5
(F0.382
F1.012
F0.553
I981
I0
tp1985
sg7
F17568.179635047913
sg8
I1000
sg9
I988
sa(dp1986
g5
(F0.382
F1.021
F0.552
I986
I0
tp1987
sg7
F17586.737007141113
sg8
I1000
sg9
I989
sa(dp1988
g5
(F0.382
F1.015
F0.554
I983
I0
tp1989
sg7
F17605.224349975586
sg8
I1000
sg9
I990
sa(dp1990
g5
(F0.382
F1.019
F0.554
I984
I0
tp1991
sg7
F17623.657075166702
sg8
I1000
sg9
I991
sa(dp1992
g5
(F0.382
F1.016
F0.554
I986
I0
tp1993
sg7
F17642.159404993057
sg8
I1000
sg9
I992
sa(dp1994
g5
(F0.382
F1.02
F0.554
I990
I0
tp1995
sg7
F17660.668751955032
sg8
I1000
sg9
I993
satp1996
Rp1997
(dp1998
S'log_header'
p1999
I01
sS'header'
p2000
(S'gen'
p2001
S'evals'
p2002
S'hv|spread|igd|frontier#|valid#'
p2003
S'timestamp'
p2004
tp2005
sS'columns_len'
p2006
(lp2007
I3
aI5
aI30
aI9
asS'buffindex'
p2008
I994
sS'chapters'
p2009
ccollections
defaultdict
p2010
(g1
tp2011
Rp2012
sb.