ccopy_reg
_reconstructor
p0
(cdeap.tools.support
Logbook
p1
c__builtin__
list
p2
(lp3
(dp4
S'hv|spread|igd|frontier#|valid#'
p5
(F0.246
F0.714
F0.798
I107
I0
tp6
sS'timestamp'
p7
F2.225831985473633
sS'evals'
p8
I1000
sS'gen'
p9
I0
sa(dp10
g5
(F0.251
F0.719
F0.789
I134
I0
tp11
sg7
F8.981629848480225
sg8
I1000
sg9
I1
sa(dp12
g5
(F0.271
F0.679
F0.791
I140
I0
tp13
sg7
F15.71055793762207
sg8
I1000
sg9
I2
sa(dp14
g5
(F0.28
F0.702
F0.794
I166
I0
tp15
sg7
F22.802626848220825
sg8
I1000
sg9
I3
sa(dp16
g5
(F0.288
F0.668
F0.798
I159
I0
tp17
sg7
F29.783406019210815
sg8
I1000
sg9
I4
sa(dp18
g5
(F0.29
F0.614
F0.809
I150
I0
tp19
sg7
F36.83956789970398
sg8
I1000
sg9
I5
sa(dp20
g5
(F0.304
F0.572
F0.824
I188
I0
tp21
sg7
F44.11663103103638
sg8
I1000
sg9
I6
sa(dp22
g5
(F0.307
F0.62
F0.811
I206
I0
tp23
sg7
F51.91120886802673
sg8
I1000
sg9
I7
sa(dp24
g5
(F0.313
F0.625
F0.817
I204
I0
tp25
sg7
F59.95339298248291
sg8
I1000
sg9
I8
sa(dp26
g5
(F0.322
F0.611
F0.813
I223
I0
tp27
sg7
F68.14762687683105
sg8
I1000
sg9
I9
sa(dp28
g5
(F0.325
F0.641
F0.802
I254
I0
tp29
sg7
F76.19113183021545
sg8
I1000
sg9
I10
sa(dp30
g5
(F0.331
F0.641
F0.805
I265
I0
tp31
sg7
F84.29708504676819
sg8
I1000
sg9
I11
sa(dp32
g5
(F0.336
F0.638
F0.795
I263
I0
tp33
sg7
F92.42028403282166
sg8
I1000
sg9
I12
sa(dp34
g5
(F0.341
F0.65
F0.806
I267
I0
tp35
sg7
F100.5610659122467
sg8
I1000
sg9
I13
sa(dp36
g5
(F0.343
F0.696
F0.792
I283
I0
tp37
sg7
F108.69215989112854
sg8
I1000
sg9
I14
sa(dp38
g5
(F0.346
F0.62
F0.795
I282
I0
tp39
sg7
F116.83711504936218
sg8
I1000
sg9
I15
sa(dp40
g5
(F0.348
F0.663
F0.787
I308
I0
tp41
sg7
F125.14266800880432
sg8
I1000
sg9
I16
sa(dp42
g5
(F0.355
F0.608
F0.785
I317
I0
tp43
sg7
F133.7146680355072
sg8
I1000
sg9
I17
sa(dp44
g5
(F0.359
F0.633
F0.792
I308
I0
tp45
sg7
F142.4286048412323
sg8
I1000
sg9
I18
sa(dp46
g5
(F0.362
F0.664
F0.784
I343
I0
tp47
sg7
F151.34704899787903
sg8
I1000
sg9
I19
sa(dp48
g5
(F0.364
F0.636
F0.803
I361
I0
tp49
sg7
F160.4448699951172
sg8
I1000
sg9
I20
sa(dp50
g5
(F0.365
F0.655
F0.813
I382
I0
tp51
sg7
F169.67353296279907
sg8
I1000
sg9
I21
sa(dp52
g5
(F0.366
F0.685
F0.817
I404
I0
tp53
sg7
F178.8184049129486
sg8
I1000
sg9
I22
sa(dp54
g5
(F0.369
F0.701
F0.815
I418
I0
tp55
sg7
F187.85119795799255
sg8
I1000
sg9
I23
sa(dp56
g5
(F0.369
F0.703
F0.817
I426
I0
tp57
sg7
F196.68967700004578
sg8
I1000
sg9
I24
sa(dp58
g5
(F0.374
F0.716
F0.817
I454
I0
tp59
sg7
F205.68617486953735
sg8
I1000
sg9
I25
sa(dp60
g5
(F0.379
F0.716
F0.821
I455
I0
tp61
sg7
F214.83284497261047
sg8
I1000
sg9
I26
sa(dp62
g5
(F0.381
F0.693
F0.822
I454
I0
tp63
sg7
F224.03981399536133
sg8
I1000
sg9
I27
sa(dp64
g5
(F0.381
F0.708
F0.82
I459
I0
tp65
sg7
F233.29932403564453
sg8
I1000
sg9
I28
sa(dp66
g5
(F0.382
F0.644
F0.824
I446
I0
tp67
sg7
F242.66822695732117
sg8
I1000
sg9
I29
sa(dp68
g5
(F0.385
F0.64
F0.83
I440
I0
tp69
sg7
F251.9889509677887
sg8
I1000
sg9
I30
sa(dp70
g5
(F0.386
F0.652
F0.822
I443
I0
tp71
sg7
F261.224732875824
sg8
I1000
sg9
I31
sa(dp72
g5
(F0.386
F0.614
F0.829
I464
I0
tp73
sg7
F270.56472182273865
sg8
I1000
sg9
I32
sa(dp74
g5
(F0.387
F0.65
F0.827
I480
I0
tp75
sg7
F280.3992488384247
sg8
I1000
sg9
I33
sa(dp76
g5
(F0.388
F0.634
F0.829
I485
I0
tp77
sg7
F290.2292809486389
sg8
I1000
sg9
I34
sa(dp78
g5
(F0.388
F0.585
F0.834
I495
I0
tp79
sg7
F300.22533893585205
sg8
I1000
sg9
I35
sa(dp80
g5
(F0.391
F0.628
F0.835
I509
I0
tp81
sg7
F310.1262810230255
sg8
I1000
sg9
I36
sa(dp82
g5
(F0.391
F0.673
F0.845
I529
I0
tp83
sg7
F320.1380898952484
sg8
I1000
sg9
I37
sa(dp84
g5
(F0.392
F0.677
F0.85
I536
I0
tp85
sg7
F330.2010028362274
sg8
I1000
sg9
I38
sa(dp86
g5
(F0.392
F0.679
F0.85
I548
I0
tp87
sg7
F340.3228199481964
sg8
I1000
sg9
I39
sa(dp88
g5
(F0.393
F0.698
F0.842
I545
I0
tp89
sg7
F350.4605669975281
sg8
I1000
sg9
I40
sa(dp90
g5
(F0.395
F0.675
F0.844
I544
I0
tp91
sg7
F360.5458438396454
sg8
I1000
sg9
I41
sa(dp92
g5
(F0.398
F0.684
F0.852
I551
I0
tp93
sg7
F370.61319303512573
sg8
I1000
sg9
I42
sa(dp94
g5
(F0.398
F0.718
F0.845
I561
I0
tp95
sg7
F380.68323588371277
sg8
I1000
sg9
I43
sa(dp96
g5
(F0.399
F0.707
F0.857
I564
I0
tp97
sg7
F391.0137779712677
sg8
I1000
sg9
I44
sa(dp98
g5
(F0.4
F0.709
F0.861
I577
I0
tp99
sg7
F401.27618288993835
sg8
I1000
sg9
I45
sa(dp100
g5
(F0.4
F0.69
F0.866
I580
I0
tp101
sg7
F411.6539978981018
sg8
I1000
sg9
I46
sa(dp102
g5
(F0.401
F0.71
F0.872
I598
I0
tp103
sg7
F422.0257999897003
sg8
I1000
sg9
I47
sa(dp104
g5
(F0.402
F0.711
F0.869
I578
I0
tp105
sg7
F432.5051078796387
sg8
I1000
sg9
I48
sa(dp106
g5
(F0.402
F0.726
F0.865
I589
I0
tp107
sg7
F442.937922000885
sg8
I1000
sg9
I49
sa(dp108
g5
(F0.404
F0.727
F0.863
I575
I0
tp109
sg7
F453.2109339237213
sg8
I1000
sg9
I50
sa(dp110
g5
(F0.406
F0.734
F0.864
I564
I0
tp111
sg7
F463.2879948616028
sg8
I1000
sg9
I51
sa(dp112
g5
(F0.406
F0.731
F0.865
I573
I0
tp113
sg7
F473.44873785972595
sg8
I1000
sg9
I52
sa(dp114
g5
(F0.407
F0.712
F0.86
I562
I0
tp115
sg7
F483.626503944397
sg8
I1000
sg9
I53
sa(dp116
g5
(F0.408
F0.733
F0.86
I582
I0
tp117
sg7
F494.05867981910706
sg8
I1000
sg9
I54
sa(dp118
g5
(F0.409
F0.75
F0.854
I597
I0
tp119
sg7
F504.2463049888611
sg8
I1000
sg9
I55
sa(dp120
g5
(F0.409
F0.758
F0.863
I608
I0
tp121
sg7
F514.7140958309174
sg8
I1000
sg9
I56
sa(dp122
g5
(F0.41
F0.736
F0.863
I613
I0
tp123
sg7
F525.2850608825684
sg8
I1000
sg9
I57
sa(dp124
g5
(F0.411
F0.703
F0.865
I616
I0
tp125
sg7
F535.9486210346222
sg8
I1000
sg9
I58
sa(dp126
g5
(F0.412
F0.696
F0.862
I637
I0
tp127
sg7
F546.856791973114
sg8
I1000
sg9
I59
sa(dp128
g5
(F0.417
F0.704
F0.865
I654
I0
tp129
sg7
F557.712201833725
sg8
I1000
sg9
I60
sa(dp130
g5
(F0.418
F0.697
F0.872
I655
I0
tp131
sg7
F568.8368220329285
sg8
I1000
sg9
I61
sa(dp132
g5
(F0.419
F0.71
F0.875
I671
I0
tp133
sg7
F580.071634054184
sg8
I1000
sg9
I62
sa(dp134
g5
(F0.419
F0.697
F0.875
I680
I0
tp135
sg7
F591.3342409133911
sg8
I1000
sg9
I63
sa(dp136
g5
(F0.42
F0.678
F0.875
I682
I0
tp137
sg7
F602.7616748809814
sg8
I1000
sg9
I64
sa(dp138
g5
(F0.421
F0.685
F0.871
I695
I0
tp139
sg7
F614.864984035492
sg8
I1000
sg9
I65
sa(dp140
g5
(F0.421
F0.669
F0.87
I714
I0
tp141
sg7
F626.4919509887695
sg8
I1000
sg9
I66
sa(dp142
g5
(F0.422
F0.678
F0.866
I729
I0
tp143
sg7
F638.2806270122528
sg8
I1000
sg9
I67
sa(dp144
g5
(F0.422
F0.683
F0.867
I740
I0
tp145
sg7
F650.1015589237213
sg8
I1000
sg9
I68
sa(dp146
g5
(F0.423
F0.675
F0.869
I732
I0
tp147
sg7
F661.9031438827515
sg8
I1000
sg9
I69
sa(dp148
g5
(F0.423
F0.697
F0.87
I749
I0
tp149
sg7
F673.7336928844452
sg8
I1000
sg9
I70
sa(dp150
g5
(F0.423
F0.696
F0.867
I749
I0
tp151
sg7
F685.5671520233154
sg8
I1000
sg9
I71
sa(dp152
g5
(F0.423
F0.71
F0.87
I760
I0
tp153
sg7
F697.5332210063934
sg8
I1000
sg9
I72
sa(dp154
g5
(F0.423
F0.7
F0.87
I784
I0
tp155
sg7
F709.6632649898529
sg8
I1000
sg9
I73
sa(dp156
g5
(F0.424
F0.712
F0.87
I797
I0
tp157
sg7
F721.7979559898376
sg8
I1000
sg9
I74
sa(dp158
g5
(F0.424
F0.711
F0.865
I788
I0
tp159
sg7
F733.872386932373
sg8
I1000
sg9
I75
sa(dp160
g5
(F0.424
F0.733
F0.863
I791
I0
tp161
sg7
F745.8969569206238
sg8
I1000
sg9
I76
sa(dp162
g5
(F0.424
F0.731
F0.862
I792
I0
tp163
sg7
F757.8638279438019
sg8
I1000
sg9
I77
sa(dp164
g5
(F0.424
F0.738
F0.865
I788
I0
tp165
sg7
F769.7988739013672
sg8
I1000
sg9
I78
sa(dp166
g5
(F0.424
F0.729
F0.864
I791
I0
tp167
sg7
F781.854966878891
sg8
I1000
sg9
I79
sa(dp168
g5
(F0.425
F0.746
F0.863
I812
I0
tp169
sg7
F793.9722008705139
sg8
I1000
sg9
I80
sa(dp170
g5
(F0.425
F0.748
F0.86
I834
I0
tp171
sg7
F806.1020109653473
sg8
I1000
sg9
I81
sa(dp172
g5
(F0.425
F0.775
F0.858
I854
I0
tp173
sg7
F818.3740148544312
sg8
I1000
sg9
I82
sa(dp174
g5
(F0.425
F0.77
F0.856
I849
I0
tp175
sg7
F830.4742639064789
sg8
I1000
sg9
I83
sa(dp176
g5
(F0.426
F0.783
F0.852
I864
I0
tp177
sg7
F842.6719558238983
sg8
I1000
sg9
I84
sa(dp178
g5
(F0.426
F0.769
F0.858
I833
I0
tp179
sg7
F854.5694758892059
sg8
I1000
sg9
I85
sa(dp180
g5
(F0.426
F0.766
F0.859
I838
I0
tp181
sg7
F866.5637028217316
sg8
I1000
sg9
I86
sa(dp182
g5
(F0.427
F0.78
F0.862
I842
I0
tp183
sg7
F878.7659769058228
sg8
I1000
sg9
I87
sa(dp184
g5
(F0.429
F0.764
F0.861
I839
I0
tp185
sg7
F890.9968018531799
sg8
I1000
sg9
I88
sa(dp186
g5
(F0.429
F0.75
F0.858
I848
I0
tp187
sg7
F903.4385390281677
sg8
I1000
sg9
I89
sa(dp188
g5
(F0.431
F0.756
F0.86
I855
I0
tp189
sg7
F915.9477798938751
sg8
I1000
sg9
I90
sa(dp190
g5
(F0.431
F0.773
F0.861
I869
I0
tp191
sg7
F928.4391839504242
sg8
I1000
sg9
I91
sa(dp192
g5
(F0.431
F0.771
F0.862
I867
I0
tp193
sg7
F941.0200798511505
sg8
I1000
sg9
I92
sa(dp194
g5
(F0.432
F0.767
F0.863
I871
I0
tp195
sg7
F953.4885869026184
sg8
I1000
sg9
I93
sa(dp196
g5
(F0.432
F0.753
F0.865
I886
I0
tp197
sg7
F966.0668089389801
sg8
I1000
sg9
I94
sa(dp198
g5
(F0.432
F0.742
F0.866
I893
I0
tp199
sg7
F978.7659449577332
sg8
I1000
sg9
I95
sa(dp200
g5
(F0.432
F0.731
F0.869
I893
I0
tp201
sg7
F991.5736639499664
sg8
I1000
sg9
I96
sa(dp202
g5
(F0.433
F0.738
F0.872
I904
I0
tp203
sg7
F1004.3035218715668
sg8
I1000
sg9
I97
sa(dp204
g5
(F0.433
F0.731
F0.871
I905
I0
tp205
sg7
F1017.064160823822
sg8
I1000
sg9
I98
sa(dp206
g5
(F0.433
F0.741
F0.869
I920
I0
tp207
sg7
F1029.8991808891296
sg8
I1000
sg9
I99
sa(dp208
g5
(F0.433
F0.734
F0.867
I923
I0
tp209
sg7
F1042.7308778762817
sg8
I1000
sg9
I100
sa(dp210
g5
(F0.433
F0.732
F0.87
I931
I0
tp211
sg7
F1055.4992308616638
sg8
I1000
sg9
I101
sa(dp212
g5
(F0.434
F0.736
F0.868
I934
I0
tp213
sg7
F1068.3535869121552
sg8
I1000
sg9
I102
sa(dp214
g5
(F0.434
F0.753
F0.867
I947
I0
tp215
sg7
F1081.3838548660278
sg8
I1000
sg9
I103
sa(dp216
g5
(F0.434
F0.755
F0.873
I943
I0
tp217
sg7
F1094.3734538555145
sg8
I1000
sg9
I104
sa(dp218
g5
(F0.435
F0.729
F0.871
I942
I0
tp219
sg7
F1107.3349030017853
sg8
I1000
sg9
I105
sa(dp220
g5
(F0.435
F0.752
F0.872
I953
I0
tp221
sg7
F1120.4035408496857
sg8
I1000
sg9
I106
sa(dp222
g5
(F0.435
F0.76
F0.87
I959
I0
tp223
sg7
F1133.4684000015259
sg8
I1000
sg9
I107
sa(dp224
g5
(F0.435
F0.746
F0.87
I946
I0
tp225
sg7
F1146.3302428722382
sg8
I1000
sg9
I108
sa(dp226
g5
(F0.435
F0.76
F0.871
I957
I0
tp227
sg7
F1159.4118330478668
sg8
I1000
sg9
I109
sa(dp228
g5
(F0.435
F0.771
F0.871
I972
I0
tp229
sg7
F1172.5648138523102
sg8
I1000
sg9
I110
sa(dp230
g5
(F0.436
F0.763
F0.87
I973
I0
tp231
sg7
F1185.6900160312653
sg8
I1000
sg9
I111
sa(dp232
g5
(F0.436
F0.748
F0.866
I945
I0
tp233
sg7
F1198.6906378269196
sg8
I1000
sg9
I112
sa(dp234
g5
(F0.436
F0.748
F0.865
I939
I0
tp235
sg7
F1211.6581330299377
sg8
I1000
sg9
I113
sa(dp236
g5
(F0.437
F0.741
F0.863
I935
I0
tp237
sg7
F1225.415484905243
sg8
I1000
sg9
I114
sa(dp238
g5
(F0.438
F0.734
F0.867
I935
I0
tp239
sg7
F1238.5143868923187
sg8
I1000
sg9
I115
sa(dp240
g5
(F0.438
F0.738
F0.87
I943
I0
tp241
sg7
F1251.5258848667145
sg8
I1000
sg9
I116
sa(dp242
g5
(F0.438
F0.725
F0.874
I947
I0
tp243
sg7
F1264.6886188983917
sg8
I1000
sg9
I117
sa(dp244
g5
(F0.439
F0.752
F0.876
I959
I0
tp245
sg7
F1277.760992050171
sg8
I1000
sg9
I118
sa(dp246
g5
(F0.439
F0.762
F0.876
I952
I0
tp247
sg7
F1290.7749128341675
sg8
I1000
sg9
I119
sa(dp248
g5
(F0.439
F0.744
F0.877
I948
I0
tp249
sg7
F1303.810879945755
sg8
I1000
sg9
I120
sa(dp250
g5
(F0.439
F0.753
F0.877
I964
I0
tp251
sg7
F1317.0116758346558
sg8
I1000
sg9
I121
sa(dp252
g5
(F0.439
F0.761
F0.873
I968
I0
tp253
sg7
F1330.0984568595886
sg8
I1000
sg9
I122
sa(dp254
g5
(F0.439
F0.753
F0.874
I966
I0
tp255
sg7
F1343.1871948242188
sg8
I1000
sg9
I123
sa(dp256
g5
(F0.439
F0.764
F0.876
I968
I0
tp257
sg7
F1356.2327799797058
sg8
I1000
sg9
I124
sa(dp258
g5
(F0.439
F0.76
F0.872
I967
I0
tp259
sg7
F1369.2205810546875
sg8
I1000
sg9
I125
sa(dp260
g5
(F0.44
F0.779
F0.87
I989
I0
tp261
sg7
F1382.3366439342499
sg8
I1000
sg9
I126
sa(dp262
g5
(F0.44
F0.757
F0.869
I990
I0
tp263
sg7
F1395.3862459659576
sg8
I1000
sg9
I127
sa(dp264
g5
(F0.44
F0.751
F0.876
I985
I0
tp265
sg7
F1408.5900869369507
sg8
I1000
sg9
I128
sa(dp266
g5
(F0.44
F0.753
F0.874
I985
I0
tp267
sg7
F1421.6801629066467
sg8
I1000
sg9
I129
sa(dp268
g5
(F0.44
F0.77
F0.874
I990
I0
tp269
sg7
F1434.693156003952
sg8
I1000
sg9
I130
sa(dp270
g5
(F0.44
F0.761
F0.874
I991
I0
tp271
sg7
F1447.800127029419
sg8
I1000
sg9
I131
sa(dp272
g5
(F0.44
F0.767
F0.872
I990
I0
tp273
sg7
F1460.8868520259857
sg8
I1000
sg9
I132
sa(dp274
g5
(F0.44
F0.766
F0.866
I990
I0
tp275
sg7
F1473.9614238739014
sg8
I1000
sg9
I133
sa(dp276
g5
(F0.44
F0.777
F0.863
I992
I0
tp277
sg7
F1487.040053844452
sg8
I1000
sg9
I134
sa(dp278
g5
(F0.441
F0.774
F0.863
I992
I0
tp279
sg7
F1500.0594458580017
sg8
I1000
sg9
I135
sa(dp280
g5
(F0.441
F0.773
F0.865
I985
I0
tp281
sg7
F1513.0339059829712
sg8
I1000
sg9
I136
sa(dp282
g5
(F0.441
F0.775
F0.868
I990
I0
tp283
sg7
F1526.170763015747
sg8
I1000
sg9
I137
sa(dp284
g5
(F0.441
F0.777
F0.87
I988
I0
tp285
sg7
F1539.161213874817
sg8
I1000
sg9
I138
sa(dp286
g5
(F0.441
F0.778
F0.872
I979
I0
tp287
sg7
F1552.1027200222015
sg8
I1000
sg9
I139
sa(dp288
g5
(F0.441
F0.772
F0.875
I978
I0
tp289
sg7
F1565.1203219890594
sg8
I1000
sg9
I140
sa(dp290
g5
(F0.441
F0.78
F0.876
I983
I0
tp291
sg7
F1578.2187678813934
sg8
I1000
sg9
I141
sa(dp292
g5
(F0.442
F0.784
F0.874
I987
I0
tp293
sg7
F1591.3249549865723
sg8
I1000
sg9
I142
sa(dp294
g5
(F0.442
F0.796
F0.871
I990
I0
tp295
sg7
F1604.401193857193
sg8
I1000
sg9
I143
sa(dp296
g5
(F0.442
F0.8
F0.87
I990
I0
tp297
sg7
F1617.4551260471344
sg8
I1000
sg9
I144
sa(dp298
g5
(F0.442
F0.788
F0.867
I985
I0
tp299
sg7
F1630.43328499794
sg8
I1000
sg9
I145
sa(dp300
g5
(F0.442
F0.796
F0.868
I991
I0
tp301
sg7
F1643.5804138183594
sg8
I1000
sg9
I146
sa(dp302
g5
(F0.442
F0.798
F0.867
I991
I0
tp303
sg7
F1656.7069749832153
sg8
I1000
sg9
I147
sa(dp304
g5
(F0.442
F0.8
F0.867
I991
I0
tp305
sg7
F1669.7772948741913
sg8
I1000
sg9
I148
sa(dp306
g5
(F0.442
F0.788
F0.868
I991
I0
tp307
sg7
F1682.8459029197693
sg8
I1000
sg9
I149
sa(dp308
g5
(F0.442
F0.757
F0.868
I989
I0
tp309
sg7
F1696.0370998382568
sg8
I1000
sg9
I150
sa(dp310
g5
(F0.442
F0.789
F0.867
I991
I0
tp311
sg7
F1709.1162979602814
sg8
I1000
sg9
I151
sa(dp312
g5
(F0.442
F0.791
F0.866
I991
I0
tp313
sg7
F1722.130816936493
sg8
I1000
sg9
I152
sa(dp314
g5
(F0.442
F0.775
F0.865
I989
I0
tp315
sg7
F1735.1167879104614
sg8
I1000
sg9
I153
sa(dp316
g5
(F0.442
F0.789
F0.862
I982
I0
tp317
sg7
F1748.0604238510132
sg8
I1000
sg9
I154
sa(dp318
g5
(F0.443
F0.808
F0.861
I989
I0
tp319
sg7
F1761.042713880539
sg8
I1000
sg9
I155
sa(dp320
g5
(F0.443
F0.789
F0.863
I982
I0
tp321
sg7
F1773.9471850395203
sg8
I1000
sg9
I156
sa(dp322
g5
(F0.443
F0.797
F0.863
I981
I0
tp323
sg7
F1786.810814857483
sg8
I1000
sg9
I157
sa(dp324
g5
(F0.443
F0.795
F0.862
I980
I0
tp325
sg7
F1799.7744779586792
sg8
I1000
sg9
I158
sa(dp326
g5
(F0.443
F0.787
F0.86
I987
I0
tp327
sg7
F1812.7870888710022
sg8
I1000
sg9
I159
sa(dp328
g5
(F0.443
F0.811
F0.864
I993
I0
tp329
sg7
F1826.2960698604584
sg8
I1000
sg9
I160
sa(dp330
g5
(F0.443
F0.821
F0.864
I993
I0
tp331
sg7
F1839.329372882843
sg8
I1000
sg9
I161
sa(dp332
g5
(F0.443
F0.828
F0.867
I992
I0
tp333
sg7
F1852.1792249679565
sg8
I1000
sg9
I162
sa(dp334
g5
(F0.443
F0.814
F0.867
I991
I0
tp335
sg7
F1865.089763879776
sg8
I1000
sg9
I163
sa(dp336
g5
(F0.443
F0.818
F0.866
I992
I0
tp337
sg7
F1878.0549829006195
sg8
I1000
sg9
I164
sa(dp338
g5
(F0.444
F0.813
F0.866
I992
I0
tp339
sg7
F1890.8933310508728
sg8
I1000
sg9
I165
sa(dp340
g5
(F0.445
F0.797
F0.865
I978
I0
tp341
sg7
F1903.6297478675842
sg8
I1000
sg9
I166
sa(dp342
g5
(F0.445
F0.795
F0.864
I968
I0
tp343
sg7
F1916.3962099552155
sg8
I1000
sg9
I167
sa(dp344
g5
(F0.446
F0.79
F0.862
I975
I0
tp345
sg7
F1929.3365409374237
sg8
I1000
sg9
I168
sa(dp346
g5
(F0.446
F0.804
F0.866
I992
I0
tp347
sg7
F1942.36753988266
sg8
I1000
sg9
I169
sa(dp348
g5
(F0.446
F0.783
F0.868
I984
I0
tp349
sg7
F1955.3431668281555
sg8
I1000
sg9
I170
sa(dp350
g5
(F0.446
F0.776
F0.87
I987
I0
tp351
sg7
F1968.3550369739532
sg8
I1000
sg9
I171
sa(dp352
g5
(F0.446
F0.805
F0.869
I991
I0
tp353
sg7
F1981.2582099437714
sg8
I1000
sg9
I172
sa(dp354
g5
(F0.446
F0.813
F0.866
I991
I0
tp355
sg7
F1994.1928379535675
sg8
I1000
sg9
I173
sa(dp356
g5
(F0.446
F0.816
F0.866
I990
I0
tp357
sg7
F2007.0922129154205
sg8
I1000
sg9
I174
sa(dp358
g5
(F0.446
F0.808
F0.864
I990
I0
tp359
sg7
F2020.0324969291687
sg8
I1000
sg9
I175
sa(dp360
g5
(F0.446
F0.806
F0.868
I990
I0
tp361
sg7
F2032.9088249206543
sg8
I1000
sg9
I176
sa(dp362
g5
(F0.446
F0.808
F0.87
I989
I0
tp363
sg7
F2045.8507168293
sg8
I1000
sg9
I177
sa(dp364
g5
(F0.446
F0.818
F0.867
I989
I0
tp365
sg7
F2058.767809867859
sg8
I1000
sg9
I178
sa(dp366
g5
(F0.446
F0.816
F0.869
I988
I0
tp367
sg7
F2071.5431950092316
sg8
I1000
sg9
I179
sa(dp368
g5
(F0.448
F0.814
F0.869
I990
I0
tp369
sg7
F2084.456328868866
sg8
I1000
sg9
I180
sa(dp370
g5
(F0.448
F0.819
F0.865
I989
I0
tp371
sg7
F2097.1962900161743
sg8
I1000
sg9
I181
sa(dp372
g5
(F0.448
F0.81
F0.866
I989
I0
tp373
sg7
F2110.013921022415
sg8
I1000
sg9
I182
sa(dp374
g5
(F0.448
F0.804
F0.87
I990
I0
tp375
sg7
F2122.8908548355103
sg8
I1000
sg9
I183
sa(dp376
g5
(F0.448
F0.799
F0.869
I991
I0
tp377
sg7
F2135.8856399059296
sg8
I1000
sg9
I184
sa(dp378
g5
(F0.448
F0.798
F0.869
I991
I0
tp379
sg7
F2148.782462835312
sg8
I1000
sg9
I185
sa(dp380
g5
(F0.448
F0.799
F0.869
I991
I0
tp381
sg7
F2161.7781858444214
sg8
I1000
sg9
I186
sa(dp382
g5
(F0.448
F0.808
F0.868
I991
I0
tp383
sg7
F2174.8308799266815
sg8
I1000
sg9
I187
sa(dp384
g5
(F0.449
F0.821
F0.87
I991
I0
tp385
sg7
F2187.5996549129486
sg8
I1000
sg9
I188
sa(dp386
g5
(F0.449
F0.822
F0.87
I990
I0
tp387
sg7
F2200.3934168815613
sg8
I1000
sg9
I189
sa(dp388
g5
(F0.449
F0.802
F0.875
I982
I0
tp389
sg7
F2213.219717025757
sg8
I1000
sg9
I190
sa(dp390
g5
(F0.449
F0.798
F0.875
I990
I0
tp391
sg7
F2226.2354469299316
sg8
I1000
sg9
I191
sa(dp392
g5
(F0.449
F0.805
F0.872
I990
I0
tp393
sg7
F2239.2233259677887
sg8
I1000
sg9
I192
sa(dp394
g5
(F0.449
F0.806
F0.874
I990
I0
tp395
sg7
F2252.1406009197235
sg8
I1000
sg9
I193
sa(dp396
g5
(F0.449
F0.803
F0.873
I989
I0
tp397
sg7
F2264.8752298355103
sg8
I1000
sg9
I194
sa(dp398
g5
(F0.449
F0.806
F0.876
I989
I0
tp399
sg7
F2277.726411819458
sg8
I1000
sg9
I195
sa(dp400
g5
(F0.449
F0.796
F0.872
I989
I0
tp401
sg7
F2290.633684873581
sg8
I1000
sg9
I196
sa(dp402
g5
(F0.449
F0.803
F0.874
I989
I0
tp403
sg7
F2303.565706014633
sg8
I1000
sg9
I197
sa(dp404
g5
(F0.449
F0.801
F0.873
I989
I0
tp405
sg7
F2316.4378118515015
sg8
I1000
sg9
I198
sa(dp406
g5
(F0.449
F0.796
F0.875
I987
I0
tp407
sg7
F2329.372804880142
sg8
I1000
sg9
I199
sa(dp408
g5
(F0.449
F0.801
F0.874
I986
I0
tp409
sg7
F2342.3648669719696
sg8
I1000
sg9
I200
sa(dp410
g5
(F0.449
F0.818
F0.874
I986
I0
tp411
sg7
F2355.219079017639
sg8
I1000
sg9
I201
sa(dp412
g5
(F0.449
F0.812
F0.872
I986
I0
tp413
sg7
F2368.1352109909058
sg8
I1000
sg9
I202
sa(dp414
g5
(F0.449
F0.81
F0.875
I986
I0
tp415
sg7
F2381.137657880783
sg8
I1000
sg9
I203
sa(dp416
g5
(F0.45
F0.813
F0.874
I986
I0
tp417
sg7
F2394.0549578666687
sg8
I1000
sg9
I204
sa(dp418
g5
(F0.45
F0.826
F0.872
I987
I0
tp419
sg7
F2406.9889838695526
sg8
I1000
sg9
I205
sa(dp420
g5
(F0.45
F0.809
F0.872
I987
I0
tp421
sg7
F2419.9676990509033
sg8
I1000
sg9
I206
sa(dp422
g5
(F0.451
F0.803
F0.87
I986
I0
tp423
sg7
F2433.4583818912506
sg8
I1000
sg9
I207
sa(dp424
g5
(F0.451
F0.798
F0.874
I986
I0
tp425
sg7
F2446.3713898658752
sg8
I1000
sg9
I208
sa(dp426
g5
(F0.451
F0.812
F0.874
I986
I0
tp427
sg7
F2459.327122926712
sg8
I1000
sg9
I209
sa(dp428
g5
(F0.451
F0.809
F0.876
I987
I0
tp429
sg7
F2472.238865852356
sg8
I1000
sg9
I210
sa(dp430
g5
(F0.451
F0.808
F0.876
I986
I0
tp431
sg7
F2485.210317850113
sg8
I1000
sg9
I211
sa(dp432
g5
(F0.451
F0.786
F0.883
I986
I0
tp433
sg7
F2498.118099927902
sg8
I1000
sg9
I212
sa(dp434
g5
(F0.451
F0.793
F0.883
I985
I0
tp435
sg7
F2511.08406996727
sg8
I1000
sg9
I213
sa(dp436
g5
(F0.451
F0.803
F0.882
I985
I0
tp437
sg7
F2524.115417957306
sg8
I1000
sg9
I214
sa(dp438
g5
(F0.451
F0.818
F0.877
I985
I0
tp439
sg7
F2536.9581809043884
sg8
I1000
sg9
I215
sa(dp440
g5
(F0.452
F0.824
F0.879
I984
I0
tp441
sg7
F2549.772780895233
sg8
I1000
sg9
I216
sa(dp442
g5
(F0.452
F0.827
F0.879
I984
I0
tp443
sg7
F2562.5680060386658
sg8
I1000
sg9
I217
sa(dp444
g5
(F0.452
F0.824
F0.878
I984
I0
tp445
sg7
F2575.4292109012604
sg8
I1000
sg9
I218
sa(dp446
g5
(F0.452
F0.834
F0.879
I983
I0
tp447
sg7
F2588.196354866028
sg8
I1000
sg9
I219
sa(dp448
g5
(F0.452
F0.829
F0.878
I982
I0
tp449
sg7
F2600.9428679943085
sg8
I1000
sg9
I220
sa(dp450
g5
(F0.452
F0.841
F0.877
I981
I0
tp451
sg7
F2613.726369857788
sg8
I1000
sg9
I221
sa(dp452
g5
(F0.452
F0.827
F0.876
I980
I0
tp453
sg7
F2626.323961019516
sg8
I1000
sg9
I222
sa(dp454
g5
(F0.452
F0.821
F0.877
I981
I0
tp455
sg7
F2639.0333778858185
sg8
I1000
sg9
I223
sa(dp456
g5
(F0.452
F0.812
F0.873
I983
I0
tp457
sg7
F2651.6911928653717
sg8
I1000
sg9
I224
sa(dp458
g5
(F0.452
F0.807
F0.87
I982
I0
tp459
sg7
F2664.4045038223267
sg8
I1000
sg9
I225
sa(dp460
g5
(F0.452
F0.81
F0.872
I983
I0
tp461
sg7
F2677.0796978473663
sg8
I1000
sg9
I226
sa(dp462
g5
(F0.452
F0.809
F0.871
I983
I0
tp463
sg7
F2689.853478908539
sg8
I1000
sg9
I227
sa(dp464
g5
(F0.453
F0.807
F0.868
I983
I0
tp465
sg7
F2702.5658910274506
sg8
I1000
sg9
I228
sa(dp466
g5
(F0.453
F0.82
F0.867
I985
I0
tp467
sg7
F2715.2896299362183
sg8
I1000
sg9
I229
sa(dp468
g5
(F0.453
F0.813
F0.865
I986
I0
tp469
sg7
F2728.08083486557
sg8
I1000
sg9
I230
sa(dp470
g5
(F0.453
F0.825
F0.864
I986
I0
tp471
sg7
F2740.800449848175
sg8
I1000
sg9
I231
sa(dp472
g5
(F0.453
F0.802
F0.868
I986
I0
tp473
sg7
F2753.6079499721527
sg8
I1000
sg9
I232
sa(dp474
g5
(F0.453
F0.808
F0.867
I987
I0
tp475
sg7
F2766.450357913971
sg8
I1000
sg9
I233
sa(dp476
g5
(F0.453
F0.821
F0.867
I987
I0
tp477
sg7
F2779.2293128967285
sg8
I1000
sg9
I234
sa(dp478
g5
(F0.453
F0.827
F0.864
I987
I0
tp479
sg7
F2791.9678609371185
sg8
I1000
sg9
I235
sa(dp480
g5
(F0.453
F0.817
F0.862
I989
I0
tp481
sg7
F2804.7516629695892
sg8
I1000
sg9
I236
sa(dp482
g5
(F0.453
F0.825
F0.862
I989
I0
tp483
sg7
F2817.4695608615875
sg8
I1000
sg9
I237
sa(dp484
g5
(F0.453
F0.806
F0.862
I986
I0
tp485
sg7
F2830.218293905258
sg8
I1000
sg9
I238
sa(dp486
g5
(F0.454
F0.806
F0.862
I989
I0
tp487
sg7
F2842.953238964081
sg8
I1000
sg9
I239
sa(dp488
g5
(F0.454
F0.811
F0.862
I989
I0
tp489
sg7
F2855.7198610305786
sg8
I1000
sg9
I240
sa(dp490
g5
(F0.454
F0.798
F0.863
I988
I0
tp491
sg7
F2868.600772857666
sg8
I1000
sg9
I241
sa(dp492
g5
(F0.454
F0.821
F0.859
I990
I0
tp493
sg7
F2881.344579935074
sg8
I1000
sg9
I242
sa(dp494
g5
(F0.454
F0.816
F0.862
I990
I0
tp495
sg7
F2894.043380022049
sg8
I1000
sg9
I243
sa(dp496
g5
(F0.454
F0.812
F0.866
I990
I0
tp497
sg7
F2906.7926828861237
sg8
I1000
sg9
I244
sa(dp498
g5
(F0.455
F0.804
F0.868
I990
I0
tp499
sg7
F2919.5841250419617
sg8
I1000
sg9
I245
sa(dp500
g5
(F0.455
F0.811
F0.868
I990
I0
tp501
sg7
F2932.313509941101
sg8
I1000
sg9
I246
sa(dp502
g5
(F0.455
F0.815
F0.867
I990
I0
tp503
sg7
F2945.0780489444733
sg8
I1000
sg9
I247
sa(dp504
g5
(F0.455
F0.813
F0.869
I990
I0
tp505
sg7
F2957.8914358615875
sg8
I1000
sg9
I248
sa(dp506
g5
(F0.455
F0.807
F0.867
I991
I0
tp507
sg7
F2970.6508169174194
sg8
I1000
sg9
I249
sa(dp508
g5
(F0.455
F0.817
F0.862
I991
I0
tp509
sg7
F2983.416396856308
sg8
I1000
sg9
I250
sa(dp510
g5
(F0.455
F0.813
F0.861
I990
I0
tp511
sg7
F2996.1599938869476
sg8
I1000
sg9
I251
sa(dp512
g5
(F0.455
F0.821
F0.859
I990
I0
tp513
sg7
F3008.895835876465
sg8
I1000
sg9
I252
sa(dp514
g5
(F0.455
F0.82
F0.861
I991
I0
tp515
sg7
F3021.6152918338776
sg8
I1000
sg9
I253
sa(dp516
g5
(F0.455
F0.817
F0.86
I989
I0
tp517
sg7
F3035.053701877594
sg8
I1000
sg9
I254
sa(dp518
g5
(F0.456
F0.828
F0.862
I988
I0
tp519
sg7
F3047.8133878707886
sg8
I1000
sg9
I255
sa(dp520
g5
(F0.456
F0.818
F0.862
I987
I0
tp521
sg7
F3060.495724916458
sg8
I1000
sg9
I256
sa(dp522
g5
(F0.456
F0.824
F0.864
I986
I0
tp523
sg7
F3073.0263810157776
sg8
I1000
sg9
I257
sa(dp524
g5
(F0.456
F0.815
F0.858
I985
I0
tp525
sg7
F3085.576388835907
sg8
I1000
sg9
I258
sa(dp526
g5
(F0.456
F0.803
F0.856
I987
I0
tp527
sg7
F3098.2925729751587
sg8
I1000
sg9
I259
sa(dp528
g5
(F0.456
F0.814
F0.857
I987
I0
tp529
sg7
F3111.04695892334
sg8
I1000
sg9
I260
sa(dp530
g5
(F0.456
F0.814
F0.857
I986
I0
tp531
sg7
F3123.807142972946
sg8
I1000
sg9
I261
sa(dp532
g5
(F0.456
F0.818
F0.853
I985
I0
tp533
sg7
F3136.4879188537598
sg8
I1000
sg9
I262
sa(dp534
g5
(F0.456
F0.821
F0.855
I985
I0
tp535
sg7
F3149.1341009140015
sg8
I1000
sg9
I263
sa(dp536
g5
(F0.456
F0.824
F0.855
I985
I0
tp537
sg7
F3161.86230802536
sg8
I1000
sg9
I264
sa(dp538
g5
(F0.456
F0.818
F0.855
I985
I0
tp539
sg7
F3174.500419855118
sg8
I1000
sg9
I265
sa(dp540
g5
(F0.456
F0.828
F0.854
I983
I0
tp541
sg7
F3187.227980852127
sg8
I1000
sg9
I266
sa(dp542
g5
(F0.456
F0.815
F0.853
I984
I0
tp543
sg7
F3199.8455770015717
sg8
I1000
sg9
I267
sa(dp544
g5
(F0.456
F0.843
F0.85
I982
I0
tp545
sg7
F3212.6192870140076
sg8
I1000
sg9
I268
sa(dp546
g5
(F0.456
F0.848
F0.851
I982
I0
tp547
sg7
F3225.1138520240784
sg8
I1000
sg9
I269
sa(dp548
g5
(F0.456
F0.863
F0.855
I982
I0
tp549
sg7
F3237.6623089313507
sg8
I1000
sg9
I270
sa(dp550
g5
(F0.457
F0.86
F0.851
I983
I0
tp551
sg7
F3250.173257827759
sg8
I1000
sg9
I271
sa(dp552
g5
(F0.457
F0.859
F0.854
I983
I0
tp553
sg7
F3262.793170928955
sg8
I1000
sg9
I272
sa(dp554
g5
(F0.457
F0.855
F0.855
I983
I0
tp555
sg7
F3275.314733982086
sg8
I1000
sg9
I273
sa(dp556
g5
(F0.457
F0.857
F0.855
I984
I0
tp557
sg7
F3287.9259629249573
sg8
I1000
sg9
I274
sa(dp558
g5
(F0.457
F0.857
F0.855
I984
I0
tp559
sg7
F3300.4443349838257
sg8
I1000
sg9
I275
sa(dp560
g5
(F0.457
F0.846
F0.857
I984
I0
tp561
sg7
F3313.1488699913025
sg8
I1000
sg9
I276
sa(dp562
g5
(F0.457
F0.834
F0.857
I984
I0
tp563
sg7
F3325.839201927185
sg8
I1000
sg9
I277
sa(dp564
g5
(F0.457
F0.828
F0.856
I983
I0
tp565
sg7
F3338.4314110279083
sg8
I1000
sg9
I278
sa(dp566
g5
(F0.457
F0.83
F0.855
I982
I0
tp567
sg7
F3351.043601036072
sg8
I1000
sg9
I279
sa(dp568
g5
(F0.457
F0.835
F0.855
I984
I0
tp569
sg7
F3363.651864051819
sg8
I1000
sg9
I280
sa(dp570
g5
(F0.457
F0.831
F0.852
I984
I0
tp571
sg7
F3376.305433034897
sg8
I1000
sg9
I281
sa(dp572
g5
(F0.457
F0.836
F0.853
I986
I0
tp573
sg7
F3388.9341280460358
sg8
I1000
sg9
I282
sa(dp574
g5
(F0.457
F0.833
F0.852
I986
I0
tp575
sg7
F3401.554584980011
sg8
I1000
sg9
I283
sa(dp576
g5
(F0.457
F0.847
F0.849
I986
I0
tp577
sg7
F3414.2365419864655
sg8
I1000
sg9
I284
sa(dp578
g5
(F0.457
F0.847
F0.852
I986
I0
tp579
sg7
F3426.7371938228607
sg8
I1000
sg9
I285
sa(dp580
g5
(F0.457
F0.84
F0.851
I987
I0
tp581
sg7
F3439.2645869255066
sg8
I1000
sg9
I286
sa(dp582
g5
(F0.458
F0.848
F0.853
I987
I0
tp583
sg7
F3451.840152025223
sg8
I1000
sg9
I287
sa(dp584
g5
(F0.458
F0.855
F0.851
I987
I0
tp585
sg7
F3464.3719198703766
sg8
I1000
sg9
I288
sa(dp586
g5
(F0.458
F0.853
F0.849
I987
I0
tp587
sg7
F3476.844120979309
sg8
I1000
sg9
I289
sa(dp588
g5
(F0.458
F0.86
F0.847
I987
I0
tp589
sg7
F3489.255208015442
sg8
I1000
sg9
I290
sa(dp590
g5
(F0.459
F0.861
F0.848
I988
I0
tp591
sg7
F3501.7630388736725
sg8
I1000
sg9
I291
sa(dp592
g5
(F0.459
F0.865
F0.845
I987
I0
tp593
sg7
F3514.258343935013
sg8
I1000
sg9
I292
sa(dp594
g5
(F0.459
F0.879
F0.843
I987
I0
tp595
sg7
F3526.6867549419403
sg8
I1000
sg9
I293
sa(dp596
g5
(F0.459
F0.887
F0.844
I987
I0
tp597
sg7
F3539.1744339466095
sg8
I1000
sg9
I294
sa(dp598
g5
(F0.459
F0.87
F0.844
I987
I0
tp599
sg7
F3551.6294980049133
sg8
I1000
sg9
I295
sa(dp600
g5
(F0.459
F0.868
F0.844
I986
I0
tp601
sg7
F3564.048770904541
sg8
I1000
sg9
I296
sa(dp602
g5
(F0.459
F0.844
F0.846
I986
I0
tp603
sg7
F3576.6254830360413
sg8
I1000
sg9
I297
sa(dp604
g5
(F0.459
F0.834
F0.844
I986
I0
tp605
sg7
F3589.2382259368896
sg8
I1000
sg9
I298
sa(dp606
g5
(F0.459
F0.832
F0.841
I986
I0
tp607
sg7
F3601.96657204628
sg8
I1000
sg9
I299
sa(dp608
g5
(F0.459
F0.818
F0.843
I984
I0
tp609
sg7
F3614.58403301239
sg8
I1000
sg9
I300
sa(dp610
g5
(F0.459
F0.831
F0.842
I984
I0
tp611
sg7
F3627.2278819084167
sg8
I1000
sg9
I301
sa(dp612
g5
(F0.459
F0.831
F0.845
I983
I0
tp613
sg7
F3640.4721269607544
sg8
I1000
sg9
I302
sa(dp614
g5
(F0.459
F0.831
F0.844
I984
I0
tp615
sg7
F3653.1690418720245
sg8
I1000
sg9
I303
sa(dp616
g5
(F0.459
F0.832
F0.847
I984
I0
tp617
sg7
F3665.843225955963
sg8
I1000
sg9
I304
sa(dp618
g5
(F0.46
F0.848
F0.851
I983
I0
tp619
sg7
F3678.3787870407104
sg8
I1000
sg9
I305
sa(dp620
g5
(F0.46
F0.823
F0.849
I982
I0
tp621
sg7
F3690.9689388275146
sg8
I1000
sg9
I306
sa(dp622
g5
(F0.46
F0.829
F0.849
I982
I0
tp623
sg7
F3703.578857898712
sg8
I1000
sg9
I307
sa(dp624
g5
(F0.46
F0.84
F0.847
I980
I0
tp625
sg7
F3716.1781239509583
sg8
I1000
sg9
I308
sa(dp626
g5
(F0.46
F0.853
F0.853
I980
I0
tp627
sg7
F3728.7095708847046
sg8
I1000
sg9
I309
sa(dp628
g5
(F0.46
F0.865
F0.853
I980
I0
tp629
sg7
F3741.124112844467
sg8
I1000
sg9
I310
sa(dp630
g5
(F0.46
F0.863
F0.853
I980
I0
tp631
sg7
F3753.4450829029083
sg8
I1000
sg9
I311
sa(dp632
g5
(F0.46
F0.87
F0.851
I980
I0
tp633
sg7
F3765.857405900955
sg8
I1000
sg9
I312
sa(dp634
g5
(F0.46
F0.868
F0.851
I980
I0
tp635
sg7
F3778.356997013092
sg8
I1000
sg9
I313
sa(dp636
g5
(F0.46
F0.852
F0.852
I981
I0
tp637
sg7
F3790.8615589141846
sg8
I1000
sg9
I314
sa(dp638
g5
(F0.46
F0.854
F0.853
I981
I0
tp639
sg7
F3803.3351998329163
sg8
I1000
sg9
I315
sa(dp640
g5
(F0.46
F0.861
F0.853
I981
I0
tp641
sg7
F3815.9881629943848
sg8
I1000
sg9
I316
sa(dp642
g5
(F0.46
F0.864
F0.852
I980
I0
tp643
sg7
F3828.348960876465
sg8
I1000
sg9
I317
sa(dp644
g5
(F0.46
F0.876
F0.853
I980
I0
tp645
sg7
F3840.863883972168
sg8
I1000
sg9
I318
sa(dp646
g5
(F0.46
F0.874
F0.849
I980
I0
tp647
sg7
F3853.238555908203
sg8
I1000
sg9
I319
sa(dp648
g5
(F0.46
F0.862
F0.851
I980
I0
tp649
sg7
F3865.6259038448334
sg8
I1000
sg9
I320
sa(dp650
g5
(F0.46
F0.871
F0.853
I980
I0
tp651
sg7
F3878.106246948242
sg8
I1000
sg9
I321
sa(dp652
g5
(F0.46
F0.86
F0.854
I981
I0
tp653
sg7
F3890.412363052368
sg8
I1000
sg9
I322
sa(dp654
g5
(F0.46
F0.855
F0.856
I980
I0
tp655
sg7
F3902.9303209781647
sg8
I1000
sg9
I323
sa(dp656
g5
(F0.46
F0.859
F0.855
I980
I0
tp657
sg7
F3915.350482940674
sg8
I1000
sg9
I324
sa(dp658
g5
(F0.46
F0.855
F0.852
I982
I0
tp659
sg7
F3927.7421469688416
sg8
I1000
sg9
I325
sa(dp660
g5
(F0.46
F0.854
F0.85
I983
I0
tp661
sg7
F3940.1172919273376
sg8
I1000
sg9
I326
sa(dp662
g5
(F0.461
F0.856
F0.849
I983
I0
tp663
sg7
F3952.700528860092
sg8
I1000
sg9
I327
sa(dp664
g5
(F0.461
F0.841
F0.85
I983
I0
tp665
sg7
F3965.25554394722
sg8
I1000
sg9
I328
sa(dp666
g5
(F0.461
F0.851
F0.851
I984
I0
tp667
sg7
F3977.716532945633
sg8
I1000
sg9
I329
sa(dp668
g5
(F0.461
F0.849
F0.852
I983
I0
tp669
sg7
F3990.1770730018616
sg8
I1000
sg9
I330
sa(dp670
g5
(F0.461
F0.846
F0.855
I982
I0
tp671
sg7
F4002.7757499217987
sg8
I1000
sg9
I331
sa(dp672
g5
(F0.461
F0.85
F0.856
I982
I0
tp673
sg7
F4015.3723859786987
sg8
I1000
sg9
I332
sa(dp674
g5
(F0.461
F0.863
F0.853
I981
I0
tp675
sg7
F4027.881625890732
sg8
I1000
sg9
I333
sa(dp676
g5
(F0.461
F0.866
F0.853
I981
I0
tp677
sg7
F4040.3144838809967
sg8
I1000
sg9
I334
sa(dp678
g5
(F0.461
F0.86
F0.851
I981
I0
tp679
sg7
F4052.776871919632
sg8
I1000
sg9
I335
sa(dp680
g5
(F0.461
F0.856
F0.85
I984
I0
tp681
sg7
F4065.369663000107
sg8
I1000
sg9
I336
sa(dp682
g5
(F0.461
F0.847
F0.851
I984
I0
tp683
sg7
F4078.0179150104523
sg8
I1000
sg9
I337
sa(dp684
g5
(F0.461
F0.845
F0.85
I983
I0
tp685
sg7
F4090.6427090168
sg8
I1000
sg9
I338
sa(dp686
g5
(F0.461
F0.856
F0.85
I983
I0
tp687
sg7
F4103.176486968994
sg8
I1000
sg9
I339
sa(dp688
g5
(F0.461
F0.847
F0.854
I983
I0
tp689
sg7
F4115.756355047226
sg8
I1000
sg9
I340
sa(dp690
g5
(F0.461
F0.853
F0.85
I984
I0
tp691
sg7
F4128.309991836548
sg8
I1000
sg9
I341
sa(dp692
g5
(F0.461
F0.845
F0.85
I985
I0
tp693
sg7
F4140.975193023682
sg8
I1000
sg9
I342
sa(dp694
g5
(F0.461
F0.847
F0.849
I985
I0
tp695
sg7
F4153.5493450164795
sg8
I1000
sg9
I343
sa(dp696
g5
(F0.461
F0.84
F0.85
I985
I0
tp697
sg7
F4166.10018992424
sg8
I1000
sg9
I344
sa(dp698
g5
(F0.461
F0.836
F0.852
I985
I0
tp699
sg7
F4178.6004338264465
sg8
I1000
sg9
I345
sa(dp700
g5
(F0.461
F0.836
F0.849
I985
I0
tp701
sg7
F4191.165313959122
sg8
I1000
sg9
I346
sa(dp702
g5
(F0.461
F0.839
F0.848
I986
I0
tp703
sg7
F4203.780669927597
sg8
I1000
sg9
I347
sa(dp704
g5
(F0.461
F0.834
F0.847
I985
I0
tp705
sg7
F4216.270133018494
sg8
I1000
sg9
I348
sa(dp706
g5
(F0.461
F0.841
F0.847
I987
I0
tp707
sg7
F4228.8083329200745
sg8
I1000
sg9
I349
sa(dp708
g5
(F0.461
F0.831
F0.848
I986
I0
tp709
sg7
F4242.056902885437
sg8
I1000
sg9
I350
sa(dp710
g5
(F0.461
F0.839
F0.849
I986
I0
tp711
sg7
F4254.437155008316
sg8
I1000
sg9
I351
sa(dp712
g5
(F0.461
F0.845
F0.847
I985
I0
tp713
sg7
F4266.86208987236
sg8
I1000
sg9
I352
sa(dp714
g5
(F0.461
F0.854
F0.85
I985
I0
tp715
sg7
F4279.290601968765
sg8
I1000
sg9
I353
sa(dp716
g5
(F0.461
F0.849
F0.847
I985
I0
tp717
sg7
F4291.909873008728
sg8
I1000
sg9
I354
sa(dp718
g5
(F0.461
F0.845
F0.849
I985
I0
tp719
sg7
F4304.329344034195
sg8
I1000
sg9
I355
sa(dp720
g5
(F0.461
F0.862
F0.85
I985
I0
tp721
sg7
F4316.841111898422
sg8
I1000
sg9
I356
sa(dp722
g5
(F0.461
F0.858
F0.85
I985
I0
tp723
sg7
F4329.348196983337
sg8
I1000
sg9
I357
sa(dp724
g5
(F0.461
F0.86
F0.85
I985
I0
tp725
sg7
F4341.709161996841
sg8
I1000
sg9
I358
sa(dp726
g5
(F0.461
F0.865
F0.847
I985
I0
tp727
sg7
F4354.125110864639
sg8
I1000
sg9
I359
sa(dp728
g5
(F0.463
F0.853
F0.844
I985
I0
tp729
sg7
F4366.511903047562
sg8
I1000
sg9
I360
sa(dp730
g5
(F0.463
F0.855
F0.841
I985
I0
tp731
sg7
F4379.017875909805
sg8
I1000
sg9
I361
sa(dp732
g5
(F0.463
F0.858
F0.842
I985
I0
tp733
sg7
F4391.560662984848
sg8
I1000
sg9
I362
sa(dp734
g5
(F0.463
F0.862
F0.843
I985
I0
tp735
sg7
F4404.104984998703
sg8
I1000
sg9
I363
sa(dp736
g5
(F0.463
F0.849
F0.839
I964
I0
tp737
sg7
F4416.389201879501
sg8
I1000
sg9
I364
sa(dp738
g5
(F0.463
F0.844
F0.838
I984
I0
tp739
sg7
F4429.083775043488
sg8
I1000
sg9
I365
sa(dp740
g5
(F0.463
F0.834
F0.842
I984
I0
tp741
sg7
F4441.802151918411
sg8
I1000
sg9
I366
sa(dp742
g5
(F0.463
F0.85
F0.843
I983
I0
tp743
sg7
F4454.301072835922
sg8
I1000
sg9
I367
sa(dp744
g5
(F0.463
F0.852
F0.845
I982
I0
tp745
sg7
F4466.918967008591
sg8
I1000
sg9
I368
sa(dp746
g5
(F0.463
F0.845
F0.845
I981
I0
tp747
sg7
F4479.432004928589
sg8
I1000
sg9
I369
sa(dp748
g5
(F0.463
F0.847
F0.841
I982
I0
tp749
sg7
F4491.87809586525
sg8
I1000
sg9
I370
sa(dp750
g5
(F0.463
F0.853
F0.839
I982
I0
tp751
sg7
F4504.447082996368
sg8
I1000
sg9
I371
sa(dp752
g5
(F0.463
F0.831
F0.842
I983
I0
tp753
sg7
F4516.955795049667
sg8
I1000
sg9
I372
sa(dp754
g5
(F0.464
F0.827
F0.836
I983
I0
tp755
sg7
F4529.5841999053955
sg8
I1000
sg9
I373
sa(dp756
g5
(F0.464
F0.835
F0.838
I983
I0
tp757
sg7
F4542.189795970917
sg8
I1000
sg9
I374
sa(dp758
g5
(F0.464
F0.839
F0.841
I983
I0
tp759
sg7
F4554.849273920059
sg8
I1000
sg9
I375
sa(dp760
g5
(F0.464
F0.846
F0.839
I982
I0
tp761
sg7
F4567.432255983353
sg8
I1000
sg9
I376
sa(dp762
g5
(F0.464
F0.848
F0.839
I982
I0
tp763
sg7
F4580.006556987762
sg8
I1000
sg9
I377
sa(dp764
g5
(F0.464
F0.861
F0.842
I981
I0
tp765
sg7
F4592.469765901566
sg8
I1000
sg9
I378
sa(dp766
g5
(F0.464
F0.858
F0.845
I980
I0
tp767
sg7
F4604.911139965057
sg8
I1000
sg9
I379
sa(dp768
g5
(F0.464
F0.826
F0.844
I980
I0
tp769
sg7
F4617.483386993408
sg8
I1000
sg9
I380
sa(dp770
g5
(F0.464
F0.838
F0.84
I980
I0
tp771
sg7
F4630.048670053482
sg8
I1000
sg9
I381
sa(dp772
g5
(F0.464
F0.832
F0.842
I980
I0
tp773
sg7
F4642.692389011383
sg8
I1000
sg9
I382
sa(dp774
g5
(F0.464
F0.852
F0.842
I980
I0
tp775
sg7
F4655.126224040985
sg8
I1000
sg9
I383
sa(dp776
g5
(F0.464
F0.869
F0.839
I980
I0
tp777
sg7
F4667.731093883514
sg8
I1000
sg9
I384
sa(dp778
g5
(F0.464
F0.865
F0.84
I979
I0
tp779
sg7
F4680.147058963776
sg8
I1000
sg9
I385
sa(dp780
g5
(F0.464
F0.86
F0.839
I979
I0
tp781
sg7
F4692.5982530117035
sg8
I1000
sg9
I386
sa(dp782
g5
(F0.464
F0.855
F0.842
I979
I0
tp783
sg7
F4704.944031953812
sg8
I1000
sg9
I387
sa(dp784
g5
(F0.464
F0.857
F0.843
I979
I0
tp785
sg7
F4717.390518903732
sg8
I1000
sg9
I388
sa(dp786
g5
(F0.464
F0.855
F0.841
I979
I0
tp787
sg7
F4729.83584690094
sg8
I1000
sg9
I389
sa(dp788
g5
(F0.464
F0.847
F0.84
I979
I0
tp789
sg7
F4742.349012851715
sg8
I1000
sg9
I390
sa(dp790
g5
(F0.464
F0.844
F0.842
I978
I0
tp791
sg7
F4754.665372848511
sg8
I1000
sg9
I391
sa(dp792
g5
(F0.464
F0.841
F0.84
I977
I0
tp793
sg7
F4766.935235977173
sg8
I1000
sg9
I392
sa(dp794
g5
(F0.464
F0.851
F0.841
I979
I0
tp795
sg7
F4779.276235818863
sg8
I1000
sg9
I393
sa(dp796
g5
(F0.464
F0.846
F0.838
I980
I0
tp797
sg7
F4791.74770283699
sg8
I1000
sg9
I394
sa(dp798
g5
(F0.464
F0.853
F0.835
I980
I0
tp799
sg7
F4804.245050907135
sg8
I1000
sg9
I395
sa(dp800
g5
(F0.464
F0.86
F0.836
I979
I0
tp801
sg7
F4816.682042837143
sg8
I1000
sg9
I396
sa(dp802
g5
(F0.464
F0.855
F0.837
I979
I0
tp803
sg7
F4829.1174919605255
sg8
I1000
sg9
I397
sa(dp804
g5
(F0.464
F0.877
F0.836
I980
I0
tp805
sg7
F4842.48409986496
sg8
I1000
sg9
I398
sa(dp806
g5
(F0.464
F0.869
F0.833
I980
I0
tp807
sg7
F4854.907001018524
sg8
I1000
sg9
I399
sa(dp808
g5
(F0.464
F0.864
F0.83
I979
I0
tp809
sg7
F4867.330731868744
sg8
I1000
sg9
I400
sa(dp810
g5
(F0.464
F0.863
F0.828
I979
I0
tp811
sg7
F4879.773905992508
sg8
I1000
sg9
I401
sa(dp812
g5
(F0.464
F0.85
F0.833
I978
I0
tp813
sg7
F4892.205934047699
sg8
I1000
sg9
I402
sa(dp814
g5
(F0.464
F0.863
F0.836
I978
I0
tp815
sg7
F4904.690583944321
sg8
I1000
sg9
I403
sa(dp816
g5
(F0.464
F0.871
F0.838
I979
I0
tp817
sg7
F4917.168632030487
sg8
I1000
sg9
I404
sa(dp818
g5
(F0.464
F0.864
F0.839
I979
I0
tp819
sg7
F4929.773989915848
sg8
I1000
sg9
I405
sa(dp820
g5
(F0.464
F0.862
F0.84
I979
I0
tp821
sg7
F4942.32272195816
sg8
I1000
sg9
I406
sa(dp822
g5
(F0.464
F0.863
F0.838
I979
I0
tp823
sg7
F4954.911072969437
sg8
I1000
sg9
I407
sa(dp824
g5
(F0.464
F0.866
F0.84
I979
I0
tp825
sg7
F4967.3387768268585
sg8
I1000
sg9
I408
sa(dp826
g5
(F0.464
F0.846
F0.84
I979
I0
tp827
sg7
F4979.905836820602
sg8
I1000
sg9
I409
sa(dp828
g5
(F0.464
F0.85
F0.84
I979
I0
tp829
sg7
F4992.416494846344
sg8
I1000
sg9
I410
sa(dp830
g5
(F0.464
F0.835
F0.841
I978
I0
tp831
sg7
F5004.984313011169
sg8
I1000
sg9
I411
sa(dp832
g5
(F0.465
F0.851
F0.841
I978
I0
tp833
sg7
F5017.571595907211
sg8
I1000
sg9
I412
sa(dp834
g5
(F0.465
F0.844
F0.839
I978
I0
tp835
sg7
F5030.0875079631805
sg8
I1000
sg9
I413
sa(dp836
g5
(F0.465
F0.844
F0.837
I978
I0
tp837
sg7
F5042.410687923431
sg8
I1000
sg9
I414
sa(dp838
g5
(F0.465
F0.847
F0.837
I978
I0
tp839
sg7
F5054.83195400238
sg8
I1000
sg9
I415
sa(dp840
g5
(F0.465
F0.856
F0.835
I978
I0
tp841
sg7
F5067.218369960785
sg8
I1000
sg9
I416
sa(dp842
g5
(F0.465
F0.851
F0.835
I978
I0
tp843
sg7
F5079.61530995369
sg8
I1000
sg9
I417
sa(dp844
g5
(F0.465
F0.862
F0.832
I977
I0
tp845
sg7
F5092.020351886749
sg8
I1000
sg9
I418
sa(dp846
g5
(F0.465
F0.865
F0.829
I977
I0
tp847
sg7
F5104.45397901535
sg8
I1000
sg9
I419
sa(dp848
g5
(F0.465
F0.874
F0.831
I977
I0
tp849
sg7
F5116.701062917709
sg8
I1000
sg9
I420
sa(dp850
g5
(F0.465
F0.867
F0.831
I978
I0
tp851
sg7
F5129.012517929077
sg8
I1000
sg9
I421
sa(dp852
g5
(F0.465
F0.856
F0.835
I977
I0
tp853
sg7
F5141.372758865356
sg8
I1000
sg9
I422
sa(dp854
g5
(F0.465
F0.876
F0.833
I976
I0
tp855
sg7
F5153.715783834457
sg8
I1000
sg9
I423
sa(dp856
g5
(F0.465
F0.873
F0.832
I975
I0
tp857
sg7
F5165.974536895752
sg8
I1000
sg9
I424
sa(dp858
g5
(F0.465
F0.869
F0.828
I973
I0
tp859
sg7
F5178.203836917877
sg8
I1000
sg9
I425
sa(dp860
g5
(F0.465
F0.872
F0.827
I971
I0
tp861
sg7
F5190.450888872147
sg8
I1000
sg9
I426
sa(dp862
g5
(F0.465
F0.887
F0.829
I972
I0
tp863
sg7
F5202.67294383049
sg8
I1000
sg9
I427
sa(dp864
g5
(F0.465
F0.882
F0.828
I972
I0
tp865
sg7
F5214.785856962204
sg8
I1000
sg9
I428
sa(dp866
g5
(F0.465
F0.876
F0.83
I973
I0
tp867
sg7
F5226.971281051636
sg8
I1000
sg9
I429
sa(dp868
g5
(F0.465
F0.877
F0.829
I972
I0
tp869
sg7
F5239.225942850113
sg8
I1000
sg9
I430
sa(dp870
g5
(F0.465
F0.869
F0.829
I972
I0
tp871
sg7
F5251.548997879028
sg8
I1000
sg9
I431
sa(dp872
g5
(F0.465
F0.871
F0.827
I972
I0
tp873
sg7
F5263.761356830597
sg8
I1000
sg9
I432
sa(dp874
g5
(F0.465
F0.878
F0.825
I972
I0
tp875
sg7
F5275.856722831726
sg8
I1000
sg9
I433
sa(dp876
g5
(F0.465
F0.87
F0.825
I972
I0
tp877
sg7
F5288.076246023178
sg8
I1000
sg9
I434
sa(dp878
g5
(F0.465
F0.887
F0.823
I973
I0
tp879
sg7
F5300.252596855164
sg8
I1000
sg9
I435
sa(dp880
g5
(F0.465
F0.879
F0.822
I973
I0
tp881
sg7
F5312.478008985519
sg8
I1000
sg9
I436
sa(dp882
g5
(F0.465
F0.886
F0.82
I972
I0
tp883
sg7
F5324.663161993027
sg8
I1000
sg9
I437
sa(dp884
g5
(F0.465
F0.88
F0.821
I972
I0
tp885
sg7
F5336.7978138923645
sg8
I1000
sg9
I438
sa(dp886
g5
(F0.465
F0.875
F0.822
I973
I0
tp887
sg7
F5348.912418842316
sg8
I1000
sg9
I439
sa(dp888
g5
(F0.465
F0.873
F0.822
I974
I0
tp889
sg7
F5361.214391946793
sg8
I1000
sg9
I440
sa(dp890
g5
(F0.465
F0.865
F0.821
I974
I0
tp891
sg7
F5373.451318979263
sg8
I1000
sg9
I441
sa(dp892
g5
(F0.465
F0.873
F0.822
I973
I0
tp893
sg7
F5385.723970890045
sg8
I1000
sg9
I442
sa(dp894
g5
(F0.465
F0.868
F0.826
I973
I0
tp895
sg7
F5397.864279985428
sg8
I1000
sg9
I443
sa(dp896
g5
(F0.465
F0.878
F0.828
I973
I0
tp897
sg7
F5410.054782867432
sg8
I1000
sg9
I444
sa(dp898
g5
(F0.465
F0.88
F0.828
I973
I0
tp899
sg7
F5422.210062980652
sg8
I1000
sg9
I445
sa(dp900
g5
(F0.465
F0.892
F0.829
I970
I0
tp901
sg7
F5434.295735836029
sg8
I1000
sg9
I446
sa(dp902
g5
(F0.465
F0.888
F0.831
I970
I0
tp903
sg7
F5447.013660907745
sg8
I1000
sg9
I447
sa(dp904
g5
(F0.465
F0.889
F0.834
I970
I0
tp905
sg7
F5459.036376953125
sg8
I1000
sg9
I448
sa(dp906
g5
(F0.466
F0.879
F0.836
I970
I0
tp907
sg7
F5471.186458826065
sg8
I1000
sg9
I449
sa(dp908
g5
(F0.466
F0.881
F0.835
I972
I0
tp909
sg7
F5483.437027931213
sg8
I1000
sg9
I450
sa(dp910
g5
(F0.466
F0.887
F0.836
I972
I0
tp911
sg7
F5495.738046884537
sg8
I1000
sg9
I451
sa(dp912
g5
(F0.466
F0.863
F0.834
I972
I0
tp913
sg7
F5507.915575027466
sg8
I1000
sg9
I452
sa(dp914
g5
(F0.466
F0.855
F0.833
I972
I0
tp915
sg7
F5520.192306995392
sg8
I1000
sg9
I453
sa(dp916
g5
(F0.466
F0.855
F0.83
I971
I0
tp917
sg7
F5532.436745882034
sg8
I1000
sg9
I454
sa(dp918
g5
(F0.466
F0.861
F0.83
I969
I0
tp919
sg7
F5544.770925998688
sg8
I1000
sg9
I455
sa(dp920
g5
(F0.466
F0.88
F0.832
I969
I0
tp921
sg7
F5557.009542942047
sg8
I1000
sg9
I456
sa(dp922
g5
(F0.466
F0.882
F0.835
I968
I0
tp923
sg7
F5569.120923995972
sg8
I1000
sg9
I457
sa(dp924
g5
(F0.466
F0.877
F0.836
I968
I0
tp925
sg7
F5581.331056833267
sg8
I1000
sg9
I458
sa(dp926
g5
(F0.466
F0.869
F0.838
I968
I0
tp927
sg7
F5593.56804394722
sg8
I1000
sg9
I459
sa(dp928
g5
(F0.466
F0.86
F0.838
I970
I0
tp929
sg7
F5605.804131984711
sg8
I1000
sg9
I460
sa(dp930
g5
(F0.466
F0.86
F0.84
I970
I0
tp931
sg7
F5618.135162830353
sg8
I1000
sg9
I461
sa(dp932
g5
(F0.466
F0.862
F0.839
I970
I0
tp933
sg7
F5630.392149925232
sg8
I1000
sg9
I462
sa(dp934
g5
(F0.466
F0.86
F0.84
I969
I0
tp935
sg7
F5642.686480998993
sg8
I1000
sg9
I463
sa(dp936
g5
(F0.466
F0.867
F0.84
I969
I0
tp937
sg7
F5654.898778915405
sg8
I1000
sg9
I464
sa(dp938
g5
(F0.466
F0.878
F0.84
I969
I0
tp939
sg7
F5667.101797819138
sg8
I1000
sg9
I465
sa(dp940
g5
(F0.466
F0.879
F0.84
I969
I0
tp941
sg7
F5679.250598907471
sg8
I1000
sg9
I466
sa(dp942
g5
(F0.466
F0.872
F0.835
I969
I0
tp943
sg7
F5691.453779935837
sg8
I1000
sg9
I467
sa(dp944
g5
(F0.466
F0.869
F0.835
I967
I0
tp945
sg7
F5703.64235496521
sg8
I1000
sg9
I468
sa(dp946
g5
(F0.466
F0.87
F0.836
I967
I0
tp947
sg7
F5715.941747903824
sg8
I1000
sg9
I469
sa(dp948
g5
(F0.466
F0.868
F0.838
I967
I0
tp949
sg7
F5728.218847036362
sg8
I1000
sg9
I470
sa(dp950
g5
(F0.466
F0.862
F0.838
I967
I0
tp951
sg7
F5740.3507759571075
sg8
I1000
sg9
I471
sa(dp952
g5
(F0.466
F0.859
F0.836
I967
I0
tp953
sg7
F5752.657791852951
sg8
I1000
sg9
I472
sa(dp954
g5
(F0.466
F0.86
F0.838
I967
I0
tp955
sg7
F5765.078006029129
sg8
I1000
sg9
I473
sa(dp956
g5
(F0.467
F0.873
F0.838
I968
I0
tp957
sg7
F5777.490025043488
sg8
I1000
sg9
I474
sa(dp958
g5
(F0.467
F0.872
F0.841
I968
I0
tp959
sg7
F5789.921043872833
sg8
I1000
sg9
I475
sa(dp960
g5
(F0.467
F0.865
F0.845
I967
I0
tp961
sg7
F5802.314177036285
sg8
I1000
sg9
I476
sa(dp962
g5
(F0.467
F0.87
F0.84
I967
I0
tp963
sg7
F5814.664742946625
sg8
I1000
sg9
I477
sa(dp964
g5
(F0.467
F0.859
F0.84
I967
I0
tp965
sg7
F5827.04160284996
sg8
I1000
sg9
I478
sa(dp966
g5
(F0.467
F0.868
F0.839
I968
I0
tp967
sg7
F5839.299006938934
sg8
I1000
sg9
I479
sa(dp968
g5
(F0.467
F0.866
F0.839
I967
I0
tp969
sg7
F5851.590980052948
sg8
I1000
sg9
I480
sa(dp970
g5
(F0.467
F0.861
F0.84
I966
I0
tp971
sg7
F5863.795900821686
sg8
I1000
sg9
I481
sa(dp972
g5
(F0.467
F0.858
F0.843
I967
I0
tp973
sg7
F5876.025485992432
sg8
I1000
sg9
I482
sa(dp974
g5
(F0.467
F0.855
F0.842
I967
I0
tp975
sg7
F5888.263386011124
sg8
I1000
sg9
I483
sa(dp976
g5
(F0.467
F0.843
F0.843
I967
I0
tp977
sg7
F5900.588543891907
sg8
I1000
sg9
I484
sa(dp978
g5
(F0.467
F0.856
F0.84
I966
I0
tp979
sg7
F5912.9627368450165
sg8
I1000
sg9
I485
sa(dp980
g5
(F0.467
F0.867
F0.84
I966
I0
tp981
sg7
F5925.266861915588
sg8
I1000
sg9
I486
sa(dp982
g5
(F0.467
F0.877
F0.839
I967
I0
tp983
sg7
F5937.508234024048
sg8
I1000
sg9
I487
sa(dp984
g5
(F0.467
F0.879
F0.836
I967
I0
tp985
sg7
F5949.610074043274
sg8
I1000
sg9
I488
sa(dp986
g5
(F0.467
F0.886
F0.836
I967
I0
tp987
sg7
F5961.734668016434
sg8
I1000
sg9
I489
sa(dp988
g5
(F0.467
F0.881
F0.835
I967
I0
tp989
sg7
F5973.869009017944
sg8
I1000
sg9
I490
sa(dp990
g5
(F0.467
F0.885
F0.839
I967
I0
tp991
sg7
F5986.048868894577
sg8
I1000
sg9
I491
sa(dp992
g5
(F0.467
F0.879
F0.838
I967
I0
tp993
sg7
F5998.135570049286
sg8
I1000
sg9
I492
sa(dp994
g5
(F0.467
F0.876
F0.841
I968
I0
tp995
sg7
F6010.267581939697
sg8
I1000
sg9
I493
sa(dp996
g5
(F0.468
F0.87
F0.836
I967
I0
tp997
sg7
F6022.40641784668
sg8
I1000
sg9
I494
sa(dp998
g5
(F0.468
F0.873
F0.833
I967
I0
tp999
sg7
F6034.617321968079
sg8
I1000
sg9
I495
sa(dp1000
g5
(F0.468
F0.867
F0.835
I967
I0
tp1001
sg7
F6047.4081609249115
sg8
I1000
sg9
I496
sa(dp1002
g5
(F0.468
F0.879
F0.836
I966
I0
tp1003
sg7
F6059.625814914703
sg8
I1000
sg9
I497
sa(dp1004
g5
(F0.468
F0.879
F0.833
I967
I0
tp1005
sg7
F6071.742475032806
sg8
I1000
sg9
I498
sa(dp1006
g5
(F0.468
F0.887
F0.834
I966
I0
tp1007
sg7
F6083.789775848389
sg8
I1000
sg9
I499
sa(dp1008
g5
(F0.468
F0.883
F0.834
I966
I0
tp1009
sg7
F6095.890653848648
sg8
I1000
sg9
I500
sa(dp1010
g5
(F0.468
F0.892
F0.834
I966
I0
tp1011
sg7
F6108.052523851395
sg8
I1000
sg9
I501
sa(dp1012
g5
(F0.468
F0.877
F0.835
I965
I0
tp1013
sg7
F6120.221480846405
sg8
I1000
sg9
I502
sa(dp1014
g5
(F0.468
F0.867
F0.833
I966
I0
tp1015
sg7
F6132.300971984863
sg8
I1000
sg9
I503
sa(dp1016
g5
(F0.468
F0.859
F0.837
I968
I0
tp1017
sg7
F6144.37925696373
sg8
I1000
sg9
I504
sa(dp1018
g5
(F0.468
F0.858
F0.836
I968
I0
tp1019
sg7
F6156.581943035126
sg8
I1000
sg9
I505
sa(dp1020
g5
(F0.468
F0.863
F0.836
I967
I0
tp1021
sg7
F6168.707548856735
sg8
I1000
sg9
I506
sa(dp1022
g5
(F0.468
F0.875
F0.838
I966
I0
tp1023
sg7
F6180.844872951508
sg8
I1000
sg9
I507
sa(dp1024
g5
(F0.468
F0.876
F0.838
I966
I0
tp1025
sg7
F6193.028028011322
sg8
I1000
sg9
I508
sa(dp1026
g5
(F0.468
F0.866
F0.83
I967
I0
tp1027
sg7
F6205.221025943756
sg8
I1000
sg9
I509
sa(dp1028
g5
(F0.468
F0.875
F0.83
I967
I0
tp1029
sg7
F6217.469866991043
sg8
I1000
sg9
I510
sa(dp1030
g5
(F0.468
F0.851
F0.825
I968
I0
tp1031
sg7
F6229.685019016266
sg8
I1000
sg9
I511
sa(dp1032
g5
(F0.468
F0.847
F0.823
I968
I0
tp1033
sg7
F6242.044373989105
sg8
I1000
sg9
I512
sa(dp1034
g5
(F0.468
F0.842
F0.82
I968
I0
tp1035
sg7
F6254.321395874023
sg8
I1000
sg9
I513
sa(dp1036
g5
(F0.468
F0.855
F0.82
I967
I0
tp1037
sg7
F6266.69228887558
sg8
I1000
sg9
I514
sa(dp1038
g5
(F0.468
F0.847
F0.819
I967
I0
tp1039
sg7
F6278.956967830658
sg8
I1000
sg9
I515
sa(dp1040
g5
(F0.468
F0.84
F0.822
I967
I0
tp1041
sg7
F6291.261678934097
sg8
I1000
sg9
I516
sa(dp1042
g5
(F0.468
F0.842
F0.822
I967
I0
tp1043
sg7
F6303.727608919144
sg8
I1000
sg9
I517
sa(dp1044
g5
(F0.468
F0.834
F0.822
I966
I0
tp1045
sg7
F6316.132781982422
sg8
I1000
sg9
I518
sa(dp1046
g5
(F0.469
F0.832
F0.827
I967
I0
tp1047
sg7
F6328.427739858627
sg8
I1000
sg9
I519
sa(dp1048
g5
(F0.469
F0.847
F0.827
I967
I0
tp1049
sg7
F6340.785922050476
sg8
I1000
sg9
I520
sa(dp1050
g5
(F0.469
F0.857
F0.828
I967
I0
tp1051
sg7
F6353.124845981598
sg8
I1000
sg9
I521
sa(dp1052
g5
(F0.469
F0.854
F0.831
I967
I0
tp1053
sg7
F6365.444366931915
sg8
I1000
sg9
I522
sa(dp1054
g5
(F0.469
F0.862
F0.831
I966
I0
tp1055
sg7
F6377.810933828354
sg8
I1000
sg9
I523
sa(dp1056
g5
(F0.469
F0.852
F0.834
I967
I0
tp1057
sg7
F6390.15966296196
sg8
I1000
sg9
I524
sa(dp1058
g5
(F0.469
F0.857
F0.829
I966
I0
tp1059
sg7
F6402.359046936035
sg8
I1000
sg9
I525
sa(dp1060
g5
(F0.469
F0.848
F0.832
I966
I0
tp1061
sg7
F6414.696841001511
sg8
I1000
sg9
I526
sa(dp1062
g5
(F0.469
F0.84
F0.833
I965
I0
tp1063
sg7
F6426.953618049622
sg8
I1000
sg9
I527
sa(dp1064
g5
(F0.469
F0.833
F0.837
I966
I0
tp1065
sg7
F6439.264272928238
sg8
I1000
sg9
I528
sa(dp1066
g5
(F0.469
F0.839
F0.836
I966
I0
tp1067
sg7
F6451.615607976913
sg8
I1000
sg9
I529
sa(dp1068
g5
(F0.469
F0.843
F0.84
I967
I0
tp1069
sg7
F6463.93704199791
sg8
I1000
sg9
I530
sa(dp1070
g5
(F0.469
F0.842
F0.841
I967
I0
tp1071
sg7
F6476.292320966721
sg8
I1000
sg9
I531
sa(dp1072
g5
(F0.469
F0.827
F0.843
I966
I0
tp1073
sg7
F6488.627501010895
sg8
I1000
sg9
I532
sa(dp1074
g5
(F0.469
F0.818
F0.845
I966
I0
tp1075
sg7
F6500.885499954224
sg8
I1000
sg9
I533
sa(dp1076
g5
(F0.469
F0.814
F0.847
I966
I0
tp1077
sg7
F6513.365402936935
sg8
I1000
sg9
I534
sa(dp1078
g5
(F0.469
F0.822
F0.848
I966
I0
tp1079
sg7
F6525.585018873215
sg8
I1000
sg9
I535
sa(dp1080
g5
(F0.469
F0.826
F0.848
I966
I0
tp1081
sg7
F6537.945561885834
sg8
I1000
sg9
I536
sa(dp1082
g5
(F0.469
F0.818
F0.849
I966
I0
tp1083
sg7
F6550.415189027786
sg8
I1000
sg9
I537
sa(dp1084
g5
(F0.469
F0.834
F0.85
I966
I0
tp1085
sg7
F6562.69442486763
sg8
I1000
sg9
I538
sa(dp1086
g5
(F0.469
F0.823
F0.853
I966
I0
tp1087
sg7
F6575.042413949966
sg8
I1000
sg9
I539
sa(dp1088
g5
(F0.469
F0.832
F0.854
I966
I0
tp1089
sg7
F6587.35746383667
sg8
I1000
sg9
I540
sa(dp1090
g5
(F0.469
F0.844
F0.852
I965
I0
tp1091
sg7
F6599.834841966629
sg8
I1000
sg9
I541
sa(dp1092
g5
(F0.469
F0.845
F0.85
I965
I0
tp1093
sg7
F6612.1082508563995
sg8
I1000
sg9
I542
sa(dp1094
g5
(F0.469
F0.843
F0.849
I966
I0
tp1095
sg7
F6624.423341989517
sg8
I1000
sg9
I543
sa(dp1096
g5
(F0.469
F0.846
F0.849
I968
I0
tp1097
sg7
F6636.755107879639
sg8
I1000
sg9
I544
sa(dp1098
g5
(F0.469
F0.845
F0.845
I969
I0
tp1099
sg7
F6649.757490873337
sg8
I1000
sg9
I545
sa(dp1100
g5
(F0.469
F0.845
F0.84
I967
I0
tp1101
sg7
F6662.072702884674
sg8
I1000
sg9
I546
sa(dp1102
g5
(F0.469
F0.841
F0.843
I970
I0
tp1103
sg7
F6674.362210988998
sg8
I1000
sg9
I547
sa(dp1104
g5
(F0.469
F0.833
F0.841
I970
I0
tp1105
sg7
F6686.683362960815
sg8
I1000
sg9
I548
sa(dp1106
g5
(F0.469
F0.837
F0.837
I970
I0
tp1107
sg7
F6699.047926902771
sg8
I1000
sg9
I549
sa(dp1108
g5
(F0.469
F0.822
F0.835
I969
I0
tp1109
sg7
F6711.475945949554
sg8
I1000
sg9
I550
sa(dp1110
g5
(F0.469
F0.823
F0.834
I969
I0
tp1111
sg7
F6723.925050973892
sg8
I1000
sg9
I551
sa(dp1112
g5
(F0.469
F0.834
F0.832
I968
I0
tp1113
sg7
F6736.197187900543
sg8
I1000
sg9
I552
sa(dp1114
g5
(F0.469
F0.835
F0.834
I968
I0
tp1115
sg7
F6748.517982959747
sg8
I1000
sg9
I553
sa(dp1116
g5
(F0.469
F0.834
F0.833
I968
I0
tp1117
sg7
F6760.858132839203
sg8
I1000
sg9
I554
sa(dp1118
g5
(F0.469
F0.83
F0.833
I971
I0
tp1119
sg7
F6773.168330907822
sg8
I1000
sg9
I555
sa(dp1120
g5
(F0.469
F0.84
F0.834
I971
I0
tp1121
sg7
F6785.5146498680115
sg8
I1000
sg9
I556
sa(dp1122
g5
(F0.469
F0.846
F0.834
I971
I0
tp1123
sg7
F6797.863397836685
sg8
I1000
sg9
I557
sa(dp1124
g5
(F0.469
F0.85
F0.832
I971
I0
tp1125
sg7
F6810.2139108181
sg8
I1000
sg9
I558
sa(dp1126
g5
(F0.469
F0.851
F0.835
I970
I0
tp1127
sg7
F6822.505905866623
sg8
I1000
sg9
I559
sa(dp1128
g5
(F0.469
F0.859
F0.835
I969
I0
tp1129
sg7
F6834.795079946518
sg8
I1000
sg9
I560
sa(dp1130
g5
(F0.469
F0.855
F0.837
I969
I0
tp1131
sg7
F6847.089059829712
sg8
I1000
sg9
I561
sa(dp1132
g5
(F0.469
F0.848
F0.839
I969
I0
tp1133
sg7
F6859.405840873718
sg8
I1000
sg9
I562
sa(dp1134
g5
(F0.47
F0.85
F0.839
I967
I0
tp1135
sg7
F6871.713572978973
sg8
I1000
sg9
I563
sa(dp1136
g5
(F0.47
F0.844
F0.84
I968
I0
tp1137
sg7
F6883.933172941208
sg8
I1000
sg9
I564
sa(dp1138
g5
(F0.47
F0.848
F0.841
I969
I0
tp1139
sg7
F6896.227485895157
sg8
I1000
sg9
I565
sa(dp1140
g5
(F0.47
F0.844
F0.841
I967
I0
tp1141
sg7
F6908.4428288936615
sg8
I1000
sg9
I566
sa(dp1142
g5
(F0.47
F0.847
F0.838
I968
I0
tp1143
sg7
F6920.711418867111
sg8
I1000
sg9
I567
sa(dp1144
g5
(F0.47
F0.847
F0.838
I967
I0
tp1145
sg7
F6932.996629953384
sg8
I1000
sg9
I568
sa(dp1146
g5
(F0.47
F0.843
F0.841
I966
I0
tp1147
sg7
F6945.334703922272
sg8
I1000
sg9
I569
sa(dp1148
g5
(F0.47
F0.867
F0.837
I966
I0
tp1149
sg7
F6957.603569030762
sg8
I1000
sg9
I570
sa(dp1150
g5
(F0.47
F0.863
F0.839
I966
I0
tp1151
sg7
F6969.885731935501
sg8
I1000
sg9
I571
sa(dp1152
g5
(F0.47
F0.868
F0.839
I966
I0
tp1153
sg7
F6982.164450883865
sg8
I1000
sg9
I572
sa(dp1154
g5
(F0.47
F0.863
F0.842
I967
I0
tp1155
sg7
F6994.438436985016
sg8
I1000
sg9
I573
sa(dp1156
g5
(F0.47
F0.869
F0.839
I967
I0
tp1157
sg7
F7006.728581905365
sg8
I1000
sg9
I574
sa(dp1158
g5
(F0.47
F0.863
F0.839
I967
I0
tp1159
sg7
F7018.967584848404
sg8
I1000
sg9
I575
sa(dp1160
g5
(F0.47
F0.852
F0.838
I967
I0
tp1161
sg7
F7031.197044849396
sg8
I1000
sg9
I576
sa(dp1162
g5
(F0.47
F0.856
F0.838
I967
I0
tp1163
sg7
F7043.583554983139
sg8
I1000
sg9
I577
sa(dp1164
g5
(F0.47
F0.865
F0.837
I967
I0
tp1165
sg7
F7055.856161832809
sg8
I1000
sg9
I578
sa(dp1166
g5
(F0.47
F0.869
F0.839
I967
I0
tp1167
sg7
F7068.005334854126
sg8
I1000
sg9
I579
sa(dp1168
g5
(F0.47
F0.87
F0.837
I967
I0
tp1169
sg7
F7080.197245836258
sg8
I1000
sg9
I580
sa(dp1170
g5
(F0.47
F0.861
F0.838
I968
I0
tp1171
sg7
F7092.471519947052
sg8
I1000
sg9
I581
sa(dp1172
g5
(F0.47
F0.858
F0.836
I968
I0
tp1173
sg7
F7104.837957859039
sg8
I1000
sg9
I582
sa(dp1174
g5
(F0.47
F0.857
F0.84
I968
I0
tp1175
sg7
F7117.214408874512
sg8
I1000
sg9
I583
sa(dp1176
g5
(F0.47
F0.879
F0.84
I968
I0
tp1177
sg7
F7129.471465826035
sg8
I1000
sg9
I584
sa(dp1178
g5
(F0.47
F0.875
F0.844
I968
I0
tp1179
sg7
F7141.787133932114
sg8
I1000
sg9
I585
sa(dp1180
g5
(F0.47
F0.884
F0.847
I967
I0
tp1181
sg7
F7154.121291875839
sg8
I1000
sg9
I586
sa(dp1182
g5
(F0.47
F0.873
F0.849
I967
I0
tp1183
sg7
F7166.276922941208
sg8
I1000
sg9
I587
sa(dp1184
g5
(F0.47
F0.878
F0.846
I967
I0
tp1185
sg7
F7178.560019016266
sg8
I1000
sg9
I588
sa(dp1186
g5
(F0.47
F0.871
F0.847
I964
I0
tp1187
sg7
F7190.674957990646
sg8
I1000
sg9
I589
sa(dp1188
g5
(F0.47
F0.871
F0.849
I964
I0
tp1189
sg7
F7202.914165019989
sg8
I1000
sg9
I590
sa(dp1190
g5
(F0.47
F0.852
F0.847
I964
I0
tp1191
sg7
F7215.123283863068
sg8
I1000
sg9
I591
sa(dp1192
g5
(F0.47
F0.863
F0.849
I964
I0
tp1193
sg7
F7227.308712005615
sg8
I1000
sg9
I592
sa(dp1194
g5
(F0.47
F0.856
F0.852
I963
I0
tp1195
sg7
F7239.439260959625
sg8
I1000
sg9
I593
sa(dp1196
g5
(F0.47
F0.834
F0.854
I962
I0
tp1197
sg7
F7252.318480968475
sg8
I1000
sg9
I594
sa(dp1198
g5
(F0.47
F0.828
F0.851
I963
I0
tp1199
sg7
F7264.627768993378
sg8
I1000
sg9
I595
sa(dp1200
g5
(F0.471
F0.831
F0.849
I964
I0
tp1201
sg7
F7276.966058015823
sg8
I1000
sg9
I596
sa(dp1202
g5
(F0.471
F0.849
F0.851
I963
I0
tp1203
sg7
F7289.250911951065
sg8
I1000
sg9
I597
sa(dp1204
g5
(F0.471
F0.833
F0.853
I963
I0
tp1205
sg7
F7301.482019901276
sg8
I1000
sg9
I598
sa(dp1206
g5
(F0.471
F0.826
F0.855
I963
I0
tp1207
sg7
F7313.735172986984
sg8
I1000
sg9
I599
sa(dp1208
g5
(F0.471
F0.828
F0.853
I963
I0
tp1209
sg7
F7326.015358924866
sg8
I1000
sg9
I600
sa(dp1210
g5
(F0.471
F0.832
F0.852
I962
I0
tp1211
sg7
F7338.2158789634705
sg8
I1000
sg9
I601
sa(dp1212
g5
(F0.471
F0.828
F0.848
I962
I0
tp1213
sg7
F7350.358085870743
sg8
I1000
sg9
I602
sa(dp1214
g5
(F0.471
F0.826
F0.849
I961
I0
tp1215
sg7
F7362.612520933151
sg8
I1000
sg9
I603
sa(dp1216
g5
(F0.471
F0.823
F0.853
I962
I0
tp1217
sg7
F7374.828320026398
sg8
I1000
sg9
I604
sa(dp1218
g5
(F0.471
F0.823
F0.849
I963
I0
tp1219
sg7
F7387.130534887314
sg8
I1000
sg9
I605
sa(dp1220
g5
(F0.471
F0.809
F0.849
I963
I0
tp1221
sg7
F7399.461839914322
sg8
I1000
sg9
I606
sa(dp1222
g5
(F0.471
F0.804
F0.846
I963
I0
tp1223
sg7
F7411.873054027557
sg8
I1000
sg9
I607
sa(dp1224
g5
(F0.471
F0.811
F0.847
I963
I0
tp1225
sg7
F7424.197643041611
sg8
I1000
sg9
I608
sa(dp1226
g5
(F0.471
F0.805
F0.845
I963
I0
tp1227
sg7
F7436.498342037201
sg8
I1000
sg9
I609
sa(dp1228
g5
(F0.471
F0.811
F0.842
I962
I0
tp1229
sg7
F7448.701679944992
sg8
I1000
sg9
I610
sa(dp1230
g5
(F0.471
F0.8
F0.843
I965
I0
tp1231
sg7
F7461.00488781929
sg8
I1000
sg9
I611
sa(dp1232
g5
(F0.471
F0.793
F0.842
I965
I0
tp1233
sg7
F7473.39413690567
sg8
I1000
sg9
I612
sa(dp1234
g5
(F0.471
F0.804
F0.842
I965
I0
tp1235
sg7
F7485.855063915253
sg8
I1000
sg9
I613
sa(dp1236
g5
(F0.471
F0.792
F0.844
I965
I0
tp1237
sg7
F7498.459266901016
sg8
I1000
sg9
I614
sa(dp1238
g5
(F0.471
F0.8
F0.845
I965
I0
tp1239
sg7
F7511.05108499527
sg8
I1000
sg9
I615
sa(dp1240
g5
(F0.471
F0.806
F0.845
I965
I0
tp1241
sg7
F7523.542870998383
sg8
I1000
sg9
I616
sa(dp1242
g5
(F0.471
F0.804
F0.845
I965
I0
tp1243
sg7
F7535.940495014191
sg8
I1000
sg9
I617
sa(dp1244
g5
(F0.471
F0.804
F0.847
I965
I0
tp1245
sg7
F7548.436058044434
sg8
I1000
sg9
I618
sa(dp1246
g5
(F0.471
F0.809
F0.846
I965
I0
tp1247
sg7
F7560.942280054092
sg8
I1000
sg9
I619
sa(dp1248
g5
(F0.471
F0.813
F0.848
I964
I0
tp1249
sg7
F7573.272299051285
sg8
I1000
sg9
I620
sa(dp1250
g5
(F0.471
F0.823
F0.848
I964
I0
tp1251
sg7
F7585.625895023346
sg8
I1000
sg9
I621
sa(dp1252
g5
(F0.471
F0.833
F0.849
I964
I0
tp1253
sg7
F7597.895081043243
sg8
I1000
sg9
I622
sa(dp1254
g5
(F0.471
F0.838
F0.848
I963
I0
tp1255
sg7
F7610.151841878891
sg8
I1000
sg9
I623
sa(dp1256
g5
(F0.471
F0.834
F0.848
I964
I0
tp1257
sg7
F7622.376611948013
sg8
I1000
sg9
I624
sa(dp1258
g5
(F0.471
F0.841
F0.848
I965
I0
tp1259
sg7
F7634.604938983917
sg8
I1000
sg9
I625
sa(dp1260
g5
(F0.471
F0.843
F0.853
I965
I0
tp1261
sg7
F7646.7879939079285
sg8
I1000
sg9
I626
sa(dp1262
g5
(F0.471
F0.841
F0.855
I965
I0
tp1263
sg7
F7659.046754837036
sg8
I1000
sg9
I627
sa(dp1264
g5
(F0.471
F0.841
F0.854
I965
I0
tp1265
sg7
F7671.205689907074
sg8
I1000
sg9
I628
sa(dp1266
g5
(F0.471
F0.851
F0.85
I966
I0
tp1267
sg7
F7683.40552687645
sg8
I1000
sg9
I629
sa(dp1268
g5
(F0.471
F0.859
F0.85
I966
I0
tp1269
sg7
F7695.556804895401
sg8
I1000
sg9
I630
sa(dp1270
g5
(F0.471
F0.861
F0.848
I966
I0
tp1271
sg7
F7707.753648042679
sg8
I1000
sg9
I631
sa(dp1272
g5
(F0.471
F0.857
F0.849
I966
I0
tp1273
sg7
F7719.959697008133
sg8
I1000
sg9
I632
sa(dp1274
g5
(F0.471
F0.857
F0.846
I965
I0
tp1275
sg7
F7732.217891931534
sg8
I1000
sg9
I633
sa(dp1276
g5
(F0.471
F0.862
F0.846
I964
I0
tp1277
sg7
F7744.342078924179
sg8
I1000
sg9
I634
sa(dp1278
g5
(F0.471
F0.851
F0.845
I965
I0
tp1279
sg7
F7756.380625009537
sg8
I1000
sg9
I635
sa(dp1280
g5
(F0.471
F0.841
F0.847
I965
I0
tp1281
sg7
F7768.63641500473
sg8
I1000
sg9
I636
sa(dp1282
g5
(F0.471
F0.842
F0.845
I965
I0
tp1283
sg7
F7780.836009025574
sg8
I1000
sg9
I637
sa(dp1284
g5
(F0.471
F0.845
F0.844
I965
I0
tp1285
sg7
F7793.131628990173
sg8
I1000
sg9
I638
sa(dp1286
g5
(F0.471
F0.839
F0.842
I965
I0
tp1287
sg7
F7805.44935798645
sg8
I1000
sg9
I639
sa(dp1288
g5
(F0.471
F0.847
F0.841
I964
I0
tp1289
sg7
F7817.681329965591
sg8
I1000
sg9
I640
sa(dp1290
g5
(F0.471
F0.837
F0.842
I964
I0
tp1291
sg7
F7829.978932857513
sg8
I1000
sg9
I641
sa(dp1292
g5
(F0.471
F0.829
F0.842
I965
I0
tp1293
sg7
F7842.2625370025635
sg8
I1000
sg9
I642
sa(dp1294
g5
(F0.472
F0.833
F0.843
I965
I0
tp1295
sg7
F7855.166743040085
sg8
I1000
sg9
I643
sa(dp1296
g5
(F0.472
F0.82
F0.848
I967
I0
tp1297
sg7
F7867.4777319431305
sg8
I1000
sg9
I644
sa(dp1298
g5
(F0.472
F0.827
F0.848
I967
I0
tp1299
sg7
F7880.0075578689575
sg8
I1000
sg9
I645
sa(dp1300
g5
(F0.472
F0.833
F0.845
I967
I0
tp1301
sg7
F7892.294383049011
sg8
I1000
sg9
I646
sa(dp1302
g5
(F0.473
F0.835
F0.844
I967
I0
tp1303
sg7
F7904.436688899994
sg8
I1000
sg9
I647
sa(dp1304
g5
(F0.473
F0.849
F0.844
I967
I0
tp1305
sg7
F7916.727490901947
sg8
I1000
sg9
I648
sa(dp1306
g5
(F0.473
F0.848
F0.843
I967
I0
tp1307
sg7
F7928.944579839706
sg8
I1000
sg9
I649
sa(dp1308
g5
(F0.473
F0.859
F0.842
I967
I0
tp1309
sg7
F7941.223402023315
sg8
I1000
sg9
I650
sa(dp1310
g5
(F0.473
F0.86
F0.848
I967
I0
tp1311
sg7
F7953.322537899017
sg8
I1000
sg9
I651
sa(dp1312
g5
(F0.473
F0.863
F0.846
I967
I0
tp1313
sg7
F7965.481138944626
sg8
I1000
sg9
I652
sa(dp1314
g5
(F0.473
F0.853
F0.847
I966
I0
tp1315
sg7
F7977.765776872635
sg8
I1000
sg9
I653
sa(dp1316
g5
(F0.473
F0.863
F0.847
I965
I0
tp1317
sg7
F7989.919543981552
sg8
I1000
sg9
I654
sa(dp1318
g5
(F0.473
F0.866
F0.85
I963
I0
tp1319
sg7
F8002.026610851288
sg8
I1000
sg9
I655
sa(dp1320
g5
(F0.473
F0.872
F0.851
I962
I0
tp1321
sg7
F8014.147462844849
sg8
I1000
sg9
I656
sa(dp1322
g5
(F0.473
F0.867
F0.849
I960
I0
tp1323
sg7
F8026.326135873795
sg8
I1000
sg9
I657
sa(dp1324
g5
(F0.473
F0.884
F0.849
I961
I0
tp1325
sg7
F8038.399749040604
sg8
I1000
sg9
I658
sa(dp1326
g5
(F0.473
F0.884
F0.851
I965
I0
tp1327
sg7
F8050.66232585907
sg8
I1000
sg9
I659
sa(dp1328
g5
(F0.473
F0.886
F0.856
I965
I0
tp1329
sg7
F8062.883911848068
sg8
I1000
sg9
I660
sa(dp1330
g5
(F0.473
F0.874
F0.856
I964
I0
tp1331
sg7
F8074.950860977173
sg8
I1000
sg9
I661
sa(dp1332
g5
(F0.473
F0.875
F0.853
I964
I0
tp1333
sg7
F8087.184089899063
sg8
I1000
sg9
I662
sa(dp1334
g5
(F0.473
F0.871
F0.853
I964
I0
tp1335
sg7
F8099.472970962524
sg8
I1000
sg9
I663
sa(dp1336
g5
(F0.473
F0.877
F0.856
I963
I0
tp1337
sg7
F8111.622412919998
sg8
I1000
sg9
I664
sa(dp1338
g5
(F0.473
F0.874
F0.857
I964
I0
tp1339
sg7
F8123.822374820709
sg8
I1000
sg9
I665
sa(dp1340
g5
(F0.473
F0.881
F0.857
I964
I0
tp1341
sg7
F8135.984588861465
sg8
I1000
sg9
I666
sa(dp1342
g5
(F0.473
F0.871
F0.861
I965
I0
tp1343
sg7
F8148.19045996666
sg8
I1000
sg9
I667
sa(dp1344
g5
(F0.473
F0.886
F0.858
I965
I0
tp1345
sg7
F8160.411012887955
sg8
I1000
sg9
I668
sa(dp1346
g5
(F0.473
F0.88
F0.855
I967
I0
tp1347
sg7
F8172.675360918045
sg8
I1000
sg9
I669
sa(dp1348
g5
(F0.473
F0.88
F0.858
I967
I0
tp1349
sg7
F8184.862463951111
sg8
I1000
sg9
I670
sa(dp1350
g5
(F0.473
F0.894
F0.857
I966
I0
tp1351
sg7
F8197.040225982666
sg8
I1000
sg9
I671
sa(dp1352
g5
(F0.473
F0.888
F0.856
I967
I0
tp1353
sg7
F8209.129384040833
sg8
I1000
sg9
I672
sa(dp1354
g5
(F0.473
F0.884
F0.852
I967
I0
tp1355
sg7
F8221.272454023361
sg8
I1000
sg9
I673
sa(dp1356
g5
(F0.473
F0.901
F0.851
I967
I0
tp1357
sg7
F8233.368434906006
sg8
I1000
sg9
I674
sa(dp1358
g5
(F0.473
F0.877
F0.851
I968
I0
tp1359
sg7
F8245.498184919357
sg8
I1000
sg9
I675
sa(dp1360
g5
(F0.473
F0.892
F0.853
I968
I0
tp1361
sg7
F8257.660383939743
sg8
I1000
sg9
I676
sa(dp1362
g5
(F0.473
F0.887
F0.856
I969
I0
tp1363
sg7
F8269.8356590271
sg8
I1000
sg9
I677
sa(dp1364
g5
(F0.473
F0.894
F0.854
I969
I0
tp1365
sg7
F8282.042032003403
sg8
I1000
sg9
I678
sa(dp1366
g5
(F0.473
F0.892
F0.852
I969
I0
tp1367
sg7
F8294.223297834396
sg8
I1000
sg9
I679
sa(dp1368
g5
(F0.473
F0.871
F0.858
I969
I0
tp1369
sg7
F8306.403138875961
sg8
I1000
sg9
I680
sa(dp1370
g5
(F0.473
F0.858
F0.856
I970
I0
tp1371
sg7
F8318.646118879318
sg8
I1000
sg9
I681
sa(dp1372
g5
(F0.473
F0.84
F0.852
I969
I0
tp1373
sg7
F8330.994096040726
sg8
I1000
sg9
I682
sa(dp1374
g5
(F0.473
F0.841
F0.853
I968
I0
tp1375
sg7
F8343.383437871933
sg8
I1000
sg9
I683
sa(dp1376
g5
(F0.473
F0.848
F0.851
I968
I0
tp1377
sg7
F8355.772279977798
sg8
I1000
sg9
I684
sa(dp1378
g5
(F0.473
F0.856
F0.855
I968
I0
tp1379
sg7
F8368.092324972153
sg8
I1000
sg9
I685
sa(dp1380
g5
(F0.473
F0.845
F0.855
I969
I0
tp1381
sg7
F8380.47947883606
sg8
I1000
sg9
I686
sa(dp1382
g5
(F0.473
F0.831
F0.859
I969
I0
tp1383
sg7
F8392.743728876114
sg8
I1000
sg9
I687
sa(dp1384
g5
(F0.473
F0.832
F0.863
I969
I0
tp1385
sg7
F8405.242848873138
sg8
I1000
sg9
I688
sa(dp1386
g5
(F0.473
F0.835
F0.861
I968
I0
tp1387
sg7
F8417.704979896545
sg8
I1000
sg9
I689
sa(dp1388
g5
(F0.473
F0.826
F0.859
I968
I0
tp1389
sg7
F8430.10695385933
sg8
I1000
sg9
I690
sa(dp1390
g5
(F0.473
F0.819
F0.861
I968
I0
tp1391
sg7
F8442.680620908737
sg8
I1000
sg9
I691
sa(dp1392
g5
(F0.473
F0.824
F0.861
I969
I0
tp1393
sg7
F8455.849478960037
sg8
I1000
sg9
I692
sa(dp1394
g5
(F0.473
F0.822
F0.86
I968
I0
tp1395
sg7
F8468.353345870972
sg8
I1000
sg9
I693
sa(dp1396
g5
(F0.473
F0.823
F0.859
I968
I0
tp1397
sg7
F8480.829851865768
sg8
I1000
sg9
I694
sa(dp1398
g5
(F0.473
F0.831
F0.862
I967
I0
tp1399
sg7
F8493.264930009842
sg8
I1000
sg9
I695
sa(dp1400
g5
(F0.473
F0.829
F0.864
I967
I0
tp1401
sg7
F8505.564260005951
sg8
I1000
sg9
I696
sa(dp1402
g5
(F0.474
F0.825
F0.862
I967
I0
tp1403
sg7
F8518.050135850906
sg8
I1000
sg9
I697
sa(dp1404
g5
(F0.474
F0.838
F0.858
I967
I0
tp1405
sg7
F8530.470592021942
sg8
I1000
sg9
I698
sa(dp1406
g5
(F0.474
F0.825
F0.856
I967
I0
tp1407
sg7
F8542.923796892166
sg8
I1000
sg9
I699
sa(dp1408
g5
(F0.474
F0.834
F0.857
I967
I0
tp1409
sg7
F8555.39490699768
sg8
I1000
sg9
I700
sa(dp1410
g5
(F0.474
F0.836
F0.857
I967
I0
tp1411
sg7
F8567.79573392868
sg8
I1000
sg9
I701
sa(dp1412
g5
(F0.474
F0.85
F0.857
I967
I0
tp1413
sg7
F8580.161717891693
sg8
I1000
sg9
I702
sa(dp1414
g5
(F0.474
F0.863
F0.858
I967
I0
tp1415
sg7
F8592.422545909882
sg8
I1000
sg9
I703
sa(dp1416
g5
(F0.474
F0.859
F0.86
I967
I0
tp1417
sg7
F8604.690307855606
sg8
I1000
sg9
I704
sa(dp1418
g5
(F0.474
F0.876
F0.861
I967
I0
tp1419
sg7
F8616.887403011322
sg8
I1000
sg9
I705
sa(dp1420
g5
(F0.474
F0.839
F0.859
I967
I0
tp1421
sg7
F8629.182911872864
sg8
I1000
sg9
I706
sa(dp1422
g5
(F0.474
F0.845
F0.863
I967
I0
tp1423
sg7
F8641.527400970459
sg8
I1000
sg9
I707
sa(dp1424
g5
(F0.474
F0.837
F0.863
I966
I0
tp1425
sg7
F8653.91475200653
sg8
I1000
sg9
I708
sa(dp1426
g5
(F0.474
F0.829
F0.864
I966
I0
tp1427
sg7
F8666.311774969101
sg8
I1000
sg9
I709
sa(dp1428
g5
(F0.474
F0.83
F0.863
I966
I0
tp1429
sg7
F8678.728776931763
sg8
I1000
sg9
I710
sa(dp1430
g5
(F0.474
F0.828
F0.86
I966
I0
tp1431
sg7
F8691.055922031403
sg8
I1000
sg9
I711
sa(dp1432
g5
(F0.474
F0.825
F0.86
I967
I0
tp1433
sg7
F8703.49613904953
sg8
I1000
sg9
I712
sa(dp1434
g5
(F0.474
F0.83
F0.859
I967
I0
tp1435
sg7
F8715.876363992691
sg8
I1000
sg9
I713
sa(dp1436
g5
(F0.474
F0.84
F0.859
I967
I0
tp1437
sg7
F8728.352336883545
sg8
I1000
sg9
I714
sa(dp1438
g5
(F0.474
F0.838
F0.861
I966
I0
tp1439
sg7
F8740.835326910019
sg8
I1000
sg9
I715
sa(dp1440
g5
(F0.474
F0.841
F0.86
I964
I0
tp1441
sg7
F8753.272063016891
sg8
I1000
sg9
I716
sa(dp1442
g5
(F0.474
F0.846
F0.859
I963
I0
tp1443
sg7
F8765.488101005554
sg8
I1000
sg9
I717
sa(dp1444
g5
(F0.474
F0.845
F0.861
I962
I0
tp1445
sg7
F8777.811579942703
sg8
I1000
sg9
I718
sa(dp1446
g5
(F0.474
F0.848
F0.861
I962
I0
tp1447
sg7
F8790.139255046844
sg8
I1000
sg9
I719
sa(dp1448
g5
(F0.474
F0.844
F0.862
I962
I0
tp1449
sg7
F8802.41425204277
sg8
I1000
sg9
I720
sa(dp1450
g5
(F0.474
F0.833
F0.865
I962
I0
tp1451
sg7
F8814.699851989746
sg8
I1000
sg9
I721
sa(dp1452
g5
(F0.474
F0.84
F0.865
I963
I0
tp1453
sg7
F8826.979078054428
sg8
I1000
sg9
I722
sa(dp1454
g5
(F0.474
F0.846
F0.866
I963
I0
tp1455
sg7
F8839.415475845337
sg8
I1000
sg9
I723
sa(dp1456
g5
(F0.474
F0.837
F0.866
I962
I0
tp1457
sg7
F8851.705281972885
sg8
I1000
sg9
I724
sa(dp1458
g5
(F0.474
F0.834
F0.866
I963
I0
tp1459
sg7
F8863.935739994049
sg8
I1000
sg9
I725
sa(dp1460
g5
(F0.474
F0.845
F0.864
I963
I0
tp1461
sg7
F8876.253679990768
sg8
I1000
sg9
I726
sa(dp1462
g5
(F0.474
F0.854
F0.864
I963
I0
tp1463
sg7
F8888.551213026047
sg8
I1000
sg9
I727
sa(dp1464
g5
(F0.474
F0.859
F0.866
I963
I0
tp1465
sg7
F8900.938396930695
sg8
I1000
sg9
I728
sa(dp1466
g5
(F0.474
F0.849
F0.867
I962
I0
tp1467
sg7
F8913.242666006088
sg8
I1000
sg9
I729
sa(dp1468
g5
(F0.474
F0.85
F0.86
I962
I0
tp1469
sg7
F8925.50016283989
sg8
I1000
sg9
I730
sa(dp1470
g5
(F0.474
F0.845
F0.858
I961
I0
tp1471
sg7
F8937.693881988525
sg8
I1000
sg9
I731
sa(dp1472
g5
(F0.474
F0.846
F0.863
I961
I0
tp1473
sg7
F8950.001488924026
sg8
I1000
sg9
I732
sa(dp1474
g5
(F0.474
F0.854
F0.861
I961
I0
tp1475
sg7
F8962.352744817734
sg8
I1000
sg9
I733
sa(dp1476
g5
(F0.474
F0.848
F0.859
I962
I0
tp1477
sg7
F8974.794319868088
sg8
I1000
sg9
I734
sa(dp1478
g5
(F0.474
F0.838
F0.86
I963
I0
tp1479
sg7
F8987.128883838654
sg8
I1000
sg9
I735
sa(dp1480
g5
(F0.474
F0.837
F0.861
I964
I0
tp1481
sg7
F8999.518507957458
sg8
I1000
sg9
I736
sa(dp1482
g5
(F0.474
F0.84
F0.862
I964
I0
tp1483
sg7
F9011.869161844254
sg8
I1000
sg9
I737
sa(dp1484
g5
(F0.474
F0.845
F0.868
I963
I0
tp1485
sg7
F9024.199614048004
sg8
I1000
sg9
I738
sa(dp1486
g5
(F0.474
F0.846
F0.866
I963
I0
tp1487
sg7
F9036.553068876266
sg8
I1000
sg9
I739
sa(dp1488
g5
(F0.474
F0.841
F0.869
I963
I0
tp1489
sg7
F9048.81293296814
sg8
I1000
sg9
I740
sa(dp1490
g5
(F0.474
F0.844
F0.868
I963
I0
tp1491
sg7
F9062.32837486267
sg8
I1000
sg9
I741
sa(dp1492
g5
(F0.474
F0.847
F0.868
I961
I0
tp1493
sg7
F9074.59165096283
sg8
I1000
sg9
I742
sa(dp1494
g5
(F0.474
F0.859
F0.868
I960
I0
tp1495
sg7
F9086.969801902771
sg8
I1000
sg9
I743
sa(dp1496
g5
(F0.474
F0.853
F0.87
I958
I0
tp1497
sg7
F9099.155246973038
sg8
I1000
sg9
I744
sa(dp1498
g5
(F0.474
F0.852
F0.867
I958
I0
tp1499
sg7
F9111.530833005905
sg8
I1000
sg9
I745
sa(dp1500
g5
(F0.474
F0.843
F0.864
I959
I0
tp1501
sg7
F9123.806213855743
sg8
I1000
sg9
I746
sa(dp1502
g5
(F0.474
F0.838
F0.863
I959
I0
tp1503
sg7
F9136.043761968613
sg8
I1000
sg9
I747
sa(dp1504
g5
(F0.474
F0.844
F0.862
I960
I0
tp1505
sg7
F9148.18456196785
sg8
I1000
sg9
I748
sa(dp1506
g5
(F0.474
F0.855
F0.859
I959
I0
tp1507
sg7
F9160.385501861572
sg8
I1000
sg9
I749
sa(dp1508
g5
(F0.474
F0.847
F0.861
I959
I0
tp1509
sg7
F9172.707741975784
sg8
I1000
sg9
I750
sa(dp1510
g5
(F0.474
F0.848
F0.867
I960
I0
tp1511
sg7
F9184.914454936981
sg8
I1000
sg9
I751
sa(dp1512
g5
(F0.474
F0.855
F0.866
I958
I0
tp1513
sg7
F9197.107626914978
sg8
I1000
sg9
I752
sa(dp1514
g5
(F0.474
F0.865
F0.865
I958
I0
tp1515
sg7
F9209.26235795021
sg8
I1000
sg9
I753
sa(dp1516
g5
(F0.474
F0.862
F0.863
I957
I0
tp1517
sg7
F9221.510259866714
sg8
I1000
sg9
I754
sa(dp1518
g5
(F0.474
F0.843
F0.861
I957
I0
tp1519
sg7
F9233.78715801239
sg8
I1000
sg9
I755
sa(dp1520
g5
(F0.474
F0.847
F0.861
I957
I0
tp1521
sg7
F9246.011901855469
sg8
I1000
sg9
I756
sa(dp1522
g5
(F0.474
F0.842
F0.859
I957
I0
tp1523
sg7
F9258.25547003746
sg8
I1000
sg9
I757
sa(dp1524
g5
(F0.474
F0.843
F0.86
I957
I0
tp1525
sg7
F9270.612665891647
sg8
I1000
sg9
I758
sa(dp1526
g5
(F0.474
F0.844
F0.86
I957
I0
tp1527
sg7
F9282.89517402649
sg8
I1000
sg9
I759
sa(dp1528
g5
(F0.474
F0.856
F0.859
I957
I0
tp1529
sg7
F9295.090365886688
sg8
I1000
sg9
I760
sa(dp1530
g5
(F0.474
F0.841
F0.862
I959
I0
tp1531
sg7
F9307.288811922073
sg8
I1000
sg9
I761
sa(dp1532
g5
(F0.474
F0.845
F0.862
I958
I0
tp1533
sg7
F9319.497995853424
sg8
I1000
sg9
I762
sa(dp1534
g5
(F0.474
F0.837
F0.861
I958
I0
tp1535
sg7
F9331.734784841537
sg8
I1000
sg9
I763
sa(dp1536
g5
(F0.474
F0.844
F0.863
I958
I0
tp1537
sg7
F9343.956681966782
sg8
I1000
sg9
I764
sa(dp1538
g5
(F0.474
F0.839
F0.863
I957
I0
tp1539
sg7
F9356.196969032288
sg8
I1000
sg9
I765
sa(dp1540
g5
(F0.474
F0.836
F0.863
I957
I0
tp1541
sg7
F9368.461078882217
sg8
I1000
sg9
I766
sa(dp1542
g5
(F0.475
F0.85
F0.863
I958
I0
tp1543
sg7
F9380.592300891876
sg8
I1000
sg9
I767
sa(dp1544
g5
(F0.475
F0.849
F0.862
I958
I0
tp1545
sg7
F9392.636606931686
sg8
I1000
sg9
I768
sa(dp1546
g5
(F0.474
F0.853
F0.865
I957
I0
tp1547
sg7
F9404.807330846786
sg8
I1000
sg9
I769
sa(dp1548
g5
(F0.474
F0.864
F0.864
I957
I0
tp1549
sg7
F9416.964010000229
sg8
I1000
sg9
I770
sa(dp1550
g5
(F0.475
F0.861
F0.86
I957
I0
tp1551
sg7
F9429.088219881058
sg8
I1000
sg9
I771
sa(dp1552
g5
(F0.475
F0.864
F0.858
I957
I0
tp1553
sg7
F9441.162271022797
sg8
I1000
sg9
I772
sa(dp1554
g5
(F0.475
F0.862
F0.853
I957
I0
tp1555
sg7
F9453.207897901535
sg8
I1000
sg9
I773
sa(dp1556
g5
(F0.475
F0.863
F0.855
I957
I0
tp1557
sg7
F9465.445547819138
sg8
I1000
sg9
I774
sa(dp1558
g5
(F0.475
F0.852
F0.853
I957
I0
tp1559
sg7
F9477.63395690918
sg8
I1000
sg9
I775
sa(dp1560
g5
(F0.475
F0.845
F0.856
I956
I0
tp1561
sg7
F9489.806921005249
sg8
I1000
sg9
I776
sa(dp1562
g5
(F0.475
F0.844
F0.854
I956
I0
tp1563
sg7
F9501.973904848099
sg8
I1000
sg9
I777
sa(dp1564
g5
(F0.475
F0.835
F0.857
I954
I0
tp1565
sg7
F9514.043445825577
sg8
I1000
sg9
I778
sa(dp1566
g5
(F0.475
F0.84
F0.854
I954
I0
tp1567
sg7
F9526.14528298378
sg8
I1000
sg9
I779
sa(dp1568
g5
(F0.475
F0.832
F0.853
I954
I0
tp1569
sg7
F9538.310209989548
sg8
I1000
sg9
I780
sa(dp1570
g5
(F0.475
F0.842
F0.853
I954
I0
tp1571
sg7
F9550.291527986526
sg8
I1000
sg9
I781
sa(dp1572
g5
(F0.475
F0.845
F0.851
I954
I0
tp1573
sg7
F9562.343804836273
sg8
I1000
sg9
I782
sa(dp1574
g5
(F0.475
F0.831
F0.85
I955
I0
tp1575
sg7
F9574.4431579113
sg8
I1000
sg9
I783
sa(dp1576
g5
(F0.475
F0.822
F0.849
I955
I0
tp1577
sg7
F9586.550029993057
sg8
I1000
sg9
I784
sa(dp1578
g5
(F0.475
F0.836
F0.851
I955
I0
tp1579
sg7
F9598.684169054031
sg8
I1000
sg9
I785
sa(dp1580
g5
(F0.475
F0.837
F0.847
I955
I0
tp1581
sg7
F9610.77630496025
sg8
I1000
sg9
I786
sa(dp1582
g5
(F0.475
F0.835
F0.843
I956
I0
tp1583
sg7
F9622.769706964493
sg8
I1000
sg9
I787
sa(dp1584
g5
(F0.475
F0.84
F0.844
I955
I0
tp1585
sg7
F9634.803480863571
sg8
I1000
sg9
I788
sa(dp1586
g5
(F0.475
F0.847
F0.85
I955
I0
tp1587
sg7
F9646.875653982162
sg8
I1000
sg9
I789
sa(dp1588
g5
(F0.475
F0.861
F0.849
I957
I0
tp1589
sg7
F9658.953788042068
sg8
I1000
sg9
I790
sa(dp1590
g5
(F0.475
F0.868
F0.85
I959
I0
tp1591
sg7
F9671.543778896332
sg8
I1000
sg9
I791
sa(dp1592
g5
(F0.475
F0.863
F0.855
I959
I0
tp1593
sg7
F9683.613116025925
sg8
I1000
sg9
I792
sa(dp1594
g5
(F0.475
F0.863
F0.856
I959
I0
tp1595
sg7
F9695.796465873718
sg8
I1000
sg9
I793
sa(dp1596
g5
(F0.475
F0.87
F0.858
I959
I0
tp1597
sg7
F9708.01359796524
sg8
I1000
sg9
I794
sa(dp1598
g5
(F0.475
F0.859
F0.86
I959
I0
tp1599
sg7
F9720.143595933914
sg8
I1000
sg9
I795
sa(dp1600
g5
(F0.475
F0.84
F0.859
I960
I0
tp1601
sg7
F9732.162808895111
sg8
I1000
sg9
I796
sa(dp1602
g5
(F0.475
F0.849
F0.857
I960
I0
tp1603
sg7
F9744.399854898453
sg8
I1000
sg9
I797
sa(dp1604
g5
(F0.475
F0.863
F0.855
I958
I0
tp1605
sg7
F9756.565820932388
sg8
I1000
sg9
I798
sa(dp1606
g5
(F0.475
F0.865
F0.857
I957
I0
tp1607
sg7
F9768.577930927277
sg8
I1000
sg9
I799
sa(dp1608
g5
(F0.475
F0.858
F0.858
I956
I0
tp1609
sg7
F9780.651895999908
sg8
I1000
sg9
I800
sa(dp1610
g5
(F0.475
F0.871
F0.857
I955
I0
tp1611
sg7
F9792.73395395279
sg8
I1000
sg9
I801
sa(dp1612
g5
(F0.475
F0.86
F0.857
I955
I0
tp1613
sg7
F9804.757828950882
sg8
I1000
sg9
I802
sa(dp1614
g5
(F0.475
F0.851
F0.856
I955
I0
tp1615
sg7
F9816.839257001877
sg8
I1000
sg9
I803
sa(dp1616
g5
(F0.475
F0.835
F0.854
I957
I0
tp1617
sg7
F9829.066180944443
sg8
I1000
sg9
I804
sa(dp1618
g5
(F0.475
F0.824
F0.859
I955
I0
tp1619
sg7
F9841.138706922531
sg8
I1000
sg9
I805
sa(dp1620
g5
(F0.475
F0.848
F0.857
I956
I0
tp1621
sg7
F9853.360550880432
sg8
I1000
sg9
I806
sa(dp1622
g5
(F0.476
F0.846
F0.854
I956
I0
tp1623
sg7
F9865.477411985397
sg8
I1000
sg9
I807
sa(dp1624
g5
(F0.476
F0.862
F0.85
I958
I0
tp1625
sg7
F9877.600549936295
sg8
I1000
sg9
I808
sa(dp1626
g5
(F0.476
F0.863
F0.851
I958
I0
tp1627
sg7
F9889.76603603363
sg8
I1000
sg9
I809
sa(dp1628
g5
(F0.476
F0.861
F0.846
I958
I0
tp1629
sg7
F9901.911222934723
sg8
I1000
sg9
I810
sa(dp1630
g5
(F0.476
F0.844
F0.852
I959
I0
tp1631
sg7
F9914.157800912857
sg8
I1000
sg9
I811
sa(dp1632
g5
(F0.476
F0.844
F0.851
I959
I0
tp1633
sg7
F9926.541609048843
sg8
I1000
sg9
I812
sa(dp1634
g5
(F0.476
F0.842
F0.847
I959
I0
tp1635
sg7
F9938.75607585907
sg8
I1000
sg9
I813
sa(dp1636
g5
(F0.476
F0.847
F0.85
I957
I0
tp1637
sg7
F9950.868552923203
sg8
I1000
sg9
I814
sa(dp1638
g5
(F0.476
F0.835
F0.852
I957
I0
tp1639
sg7
F9963.054301977158
sg8
I1000
sg9
I815
sa(dp1640
g5
(F0.476
F0.816
F0.852
I958
I0
tp1641
sg7
F9975.259243011475
sg8
I1000
sg9
I816
sa(dp1642
g5
(F0.476
F0.823
F0.849
I958
I0
tp1643
sg7
F9987.438856840134
sg8
I1000
sg9
I817
sa(dp1644
g5
(F0.476
F0.823
F0.846
I960
I0
tp1645
sg7
F9999.600636005402
sg8
I1000
sg9
I818
sa(dp1646
g5
(F0.476
F0.823
F0.844
I959
I0
tp1647
sg7
F10011.805109024048
sg8
I1000
sg9
I819
sa(dp1648
g5
(F0.476
F0.827
F0.845
I959
I0
tp1649
sg7
F10023.947888851166
sg8
I1000
sg9
I820
sa(dp1650
g5
(F0.476
F0.823
F0.847
I959
I0
tp1651
sg7
F10036.180613040924
sg8
I1000
sg9
I821
sa(dp1652
g5
(F0.476
F0.821
F0.847
I959
I0
tp1653
sg7
F10048.441992044449
sg8
I1000
sg9
I822
sa(dp1654
g5
(F0.476
F0.81
F0.843
I959
I0
tp1655
sg7
F10060.710572004318
sg8
I1000
sg9
I823
sa(dp1656
g5
(F0.476
F0.81
F0.848
I958
I0
tp1657
sg7
F10073.015264034271
sg8
I1000
sg9
I824
sa(dp1658
g5
(F0.476
F0.813
F0.846
I958
I0
tp1659
sg7
F10085.333931922913
sg8
I1000
sg9
I825
sa(dp1660
g5
(F0.476
F0.811
F0.847
I957
I0
tp1661
sg7
F10097.573779821396
sg8
I1000
sg9
I826
sa(dp1662
g5
(F0.476
F0.817
F0.846
I956
I0
tp1663
sg7
F10109.988925933838
sg8
I1000
sg9
I827
sa(dp1664
g5
(F0.476
F0.824
F0.847
I956
I0
tp1665
sg7
F10122.199023008347
sg8
I1000
sg9
I828
sa(dp1666
g5
(F0.476
F0.811
F0.847
I956
I0
tp1667
sg7
F10134.38823390007
sg8
I1000
sg9
I829
sa(dp1668
g5
(F0.476
F0.81
F0.847
I956
I0
tp1669
sg7
F10146.640367984772
sg8
I1000
sg9
I830
sa(dp1670
g5
(F0.476
F0.812
F0.847
I957
I0
tp1671
sg7
F10158.903877019882
sg8
I1000
sg9
I831
sa(dp1672
g5
(F0.476
F0.826
F0.846
I957
I0
tp1673
sg7
F10171.237021923065
sg8
I1000
sg9
I832
sa(dp1674
g5
(F0.476
F0.834
F0.847
I957
I0
tp1675
sg7
F10183.61530303955
sg8
I1000
sg9
I833
sa(dp1676
g5
(F0.476
F0.832
F0.846
I956
I0
tp1677
sg7
F10195.780366897583
sg8
I1000
sg9
I834
sa(dp1678
g5
(F0.476
F0.829
F0.846
I957
I0
tp1679
sg7
F10207.919262886047
sg8
I1000
sg9
I835
sa(dp1680
g5
(F0.476
F0.827
F0.843
I955
I0
tp1681
sg7
F10220.137339830399
sg8
I1000
sg9
I836
sa(dp1682
g5
(F0.476
F0.822
F0.845
I955
I0
tp1683
sg7
F10232.265357971191
sg8
I1000
sg9
I837
sa(dp1684
g5
(F0.476
F0.834
F0.844
I955
I0
tp1685
sg7
F10244.455756902695
sg8
I1000
sg9
I838
sa(dp1686
g5
(F0.476
F0.843
F0.845
I955
I0
tp1687
sg7
F10256.60655283928
sg8
I1000
sg9
I839
sa(dp1688
g5
(F0.476
F0.845
F0.843
I954
I0
tp1689
sg7
F10268.76293683052
sg8
I1000
sg9
I840
sa(dp1690
g5
(F0.476
F0.815
F0.841
I957
I0
tp1691
sg7
F10281.567509889603
sg8
I1000
sg9
I841
sa(dp1692
g5
(F0.476
F0.84
F0.841
I958
I0
tp1693
sg7
F10293.899405002594
sg8
I1000
sg9
I842
sa(dp1694
g5
(F0.476
F0.828
F0.844
I959
I0
tp1695
sg7
F10306.205570936203
sg8
I1000
sg9
I843
sa(dp1696
g5
(F0.476
F0.845
F0.845
I961
I0
tp1697
sg7
F10318.37083697319
sg8
I1000
sg9
I844
sa(dp1698
g5
(F0.476
F0.839
F0.841
I960
I0
tp1699
sg7
F10330.551352977753
sg8
I1000
sg9
I845
sa(dp1700
g5
(F0.476
F0.851
F0.84
I959
I0
tp1701
sg7
F10342.743366003036
sg8
I1000
sg9
I846
sa(dp1702
g5
(F0.476
F0.861
F0.839
I959
I0
tp1703
sg7
F10354.870955944061
sg8
I1000
sg9
I847
sa(dp1704
g5
(F0.476
F0.862
F0.837
I959
I0
tp1705
sg7
F10366.900392055511
sg8
I1000
sg9
I848
sa(dp1706
g5
(F0.476
F0.843
F0.84
I959
I0
tp1707
sg7
F10378.92282986641
sg8
I1000
sg9
I849
sa(dp1708
g5
(F0.476
F0.838
F0.841
I960
I0
tp1709
sg7
F10391.200536966324
sg8
I1000
sg9
I850
sa(dp1710
g5
(F0.476
F0.833
F0.843
I959
I0
tp1711
sg7
F10403.321584939957
sg8
I1000
sg9
I851
sa(dp1712
g5
(F0.476
F0.835
F0.842
I960
I0
tp1713
sg7
F10415.47147488594
sg8
I1000
sg9
I852
sa(dp1714
g5
(F0.476
F0.84
F0.845
I960
I0
tp1715
sg7
F10427.639444828033
sg8
I1000
sg9
I853
sa(dp1716
g5
(F0.476
F0.848
F0.842
I959
I0
tp1717
sg7
F10439.657392024994
sg8
I1000
sg9
I854
sa(dp1718
g5
(F0.476
F0.847
F0.84
I959
I0
tp1719
sg7
F10451.691493034363
sg8
I1000
sg9
I855
sa(dp1720
g5
(F0.476
F0.864
F0.838
I958
I0
tp1721
sg7
F10463.670984983444
sg8
I1000
sg9
I856
sa(dp1722
g5
(F0.476
F0.875
F0.842
I956
I0
tp1723
sg7
F10475.665158033371
sg8
I1000
sg9
I857
sa(dp1724
g5
(F0.476
F0.872
F0.838
I955
I0
tp1725
sg7
F10487.567929983139
sg8
I1000
sg9
I858
sa(dp1726
g5
(F0.476
F0.87
F0.841
I955
I0
tp1727
sg7
F10499.458160877228
sg8
I1000
sg9
I859
sa(dp1728
g5
(F0.476
F0.874
F0.838
I955
I0
tp1729
sg7
F10511.399016857147
sg8
I1000
sg9
I860
sa(dp1730
g5
(F0.476
F0.877
F0.837
I953
I0
tp1731
sg7
F10523.256908893585
sg8
I1000
sg9
I861
sa(dp1732
g5
(F0.476
F0.878
F0.833
I953
I0
tp1733
sg7
F10535.110108852386
sg8
I1000
sg9
I862
sa(dp1734
g5
(F0.476
F0.861
F0.834
I954
I0
tp1735
sg7
F10546.959058046341
sg8
I1000
sg9
I863
sa(dp1736
g5
(F0.476
F0.867
F0.838
I954
I0
tp1737
sg7
F10558.970134019852
sg8
I1000
sg9
I864
sa(dp1738
g5
(F0.476
F0.864
F0.84
I953
I0
tp1739
sg7
F10570.928400993347
sg8
I1000
sg9
I865
sa(dp1740
g5
(F0.476
F0.869
F0.833
I954
I0
tp1741
sg7
F10582.814239025116
sg8
I1000
sg9
I866
sa(dp1742
g5
(F0.476
F0.88
F0.83
I955
I0
tp1743
sg7
F10594.734345912933
sg8
I1000
sg9
I867
sa(dp1744
g5
(F0.476
F0.891
F0.832
I955
I0
tp1745
sg7
F10606.623576879501
sg8
I1000
sg9
I868
sa(dp1746
g5
(F0.476
F0.894
F0.834
I955
I0
tp1747
sg7
F10618.509155988693
sg8
I1000
sg9
I869
sa(dp1748
g5
(F0.476
F0.884
F0.833
I955
I0
tp1749
sg7
F10630.524631023407
sg8
I1000
sg9
I870
sa(dp1750
g5
(F0.476
F0.889
F0.83
I955
I0
tp1751
sg7
F10642.443259000778
sg8
I1000
sg9
I871
sa(dp1752
g5
(F0.476
F0.879
F0.832
I954
I0
tp1753
sg7
F10654.297623872757
sg8
I1000
sg9
I872
sa(dp1754
g5
(F0.476
F0.894
F0.828
I953
I0
tp1755
sg7
F10666.111045837402
sg8
I1000
sg9
I873
sa(dp1756
g5
(F0.476
F0.885
F0.832
I952
I0
tp1757
sg7
F10677.869323968887
sg8
I1000
sg9
I874
sa(dp1758
g5
(F0.476
F0.885
F0.833
I951
I0
tp1759
sg7
F10689.763092041016
sg8
I1000
sg9
I875
sa(dp1760
g5
(F0.476
F0.886
F0.834
I952
I0
tp1761
sg7
F10701.383344888687
sg8
I1000
sg9
I876
sa(dp1762
g5
(F0.476
F0.888
F0.832
I950
I0
tp1763
sg7
F10713.109717845917
sg8
I1000
sg9
I877
sa(dp1764
g5
(F0.476
F0.888
F0.836
I951
I0
tp1765
sg7
F10724.891396045685
sg8
I1000
sg9
I878
sa(dp1766
g5
(F0.476
F0.89
F0.838
I951
I0
tp1767
sg7
F10736.721948862076
sg8
I1000
sg9
I879
sa(dp1768
g5
(F0.476
F0.889
F0.837
I952
I0
tp1769
sg7
F10748.65193605423
sg8
I1000
sg9
I880
sa(dp1770
g5
(F0.476
F0.888
F0.834
I952
I0
tp1771
sg7
F10760.510794878006
sg8
I1000
sg9
I881
sa(dp1772
g5
(F0.476
F0.884
F0.834
I952
I0
tp1773
sg7
F10772.37889790535
sg8
I1000
sg9
I882
sa(dp1774
g5
(F0.476
F0.883
F0.833
I952
I0
tp1775
sg7
F10784.28978395462
sg8
I1000
sg9
I883
sa(dp1776
g5
(F0.476
F0.868
F0.834
I952
I0
tp1777
sg7
F10796.179729938507
sg8
I1000
sg9
I884
sa(dp1778
g5
(F0.476
F0.863
F0.834
I952
I0
tp1779
sg7
F10808.21633195877
sg8
I1000
sg9
I885
sa(dp1780
g5
(F0.476
F0.884
F0.83
I955
I0
tp1781
sg7
F10820.188066005707
sg8
I1000
sg9
I886
sa(dp1782
g5
(F0.476
F0.871
F0.826
I955
I0
tp1783
sg7
F10832.138732910156
sg8
I1000
sg9
I887
sa(dp1784
g5
(F0.476
F0.869
F0.827
I954
I0
tp1785
sg7
F10844.00933790207
sg8
I1000
sg9
I888
sa(dp1786
g5
(F0.476
F0.873
F0.831
I955
I0
tp1787
sg7
F10855.932737827301
sg8
I1000
sg9
I889
sa(dp1788
g5
(F0.476
F0.863
F0.83
I955
I0
tp1789
sg7
F10867.824231863022
sg8
I1000
sg9
I890
sa(dp1790
g5
(F0.476
F0.859
F0.831
I954
I0
tp1791
sg7
F10879.78990483284
sg8
I1000
sg9
I891
sa(dp1792
g5
(F0.476
F0.865
F0.829
I953
I0
tp1793
sg7
F10892.295032978058
sg8
I1000
sg9
I892
sa(dp1794
g5
(F0.476
F0.866
F0.828
I953
I0
tp1795
sg7
F10904.196866035461
sg8
I1000
sg9
I893
sa(dp1796
g5
(F0.476
F0.857
F0.826
I953
I0
tp1797
sg7
F10916.114894866943
sg8
I1000
sg9
I894
sa(dp1798
g5
(F0.476
F0.859
F0.827
I953
I0
tp1799
sg7
F10928.07560801506
sg8
I1000
sg9
I895
sa(dp1800
g5
(F0.476
F0.859
F0.829
I952
I0
tp1801
sg7
F10940.029095888138
sg8
I1000
sg9
I896
sa(dp1802
g5
(F0.476
F0.875
F0.831
I952
I0
tp1803
sg7
F10951.893846035004
sg8
I1000
sg9
I897
sa(dp1804
g5
(F0.476
F0.874
F0.834
I952
I0
tp1805
sg7
F10963.889734983444
sg8
I1000
sg9
I898
sa(dp1806
g5
(F0.476
F0.875
F0.838
I953
I0
tp1807
sg7
F10975.681720018387
sg8
I1000
sg9
I899
sa(dp1808
g5
(F0.476
F0.863
F0.835
I954
I0
tp1809
sg7
F10987.706161022186
sg8
I1000
sg9
I900
sa(dp1810
g5
(F0.476
F0.869
F0.835
I954
I0
tp1811
sg7
F10999.672358036041
sg8
I1000
sg9
I901
sa(dp1812
g5
(F0.476
F0.872
F0.836
I954
I0
tp1813
sg7
F11011.722362995148
sg8
I1000
sg9
I902
sa(dp1814
g5
(F0.476
F0.864
F0.84
I953
I0
tp1815
sg7
F11023.750270843506
sg8
I1000
sg9
I903
sa(dp1816
g5
(F0.476
F0.867
F0.841
I955
I0
tp1817
sg7
F11035.772976875305
sg8
I1000
sg9
I904
sa(dp1818
g5
(F0.476
F0.862
F0.841
I956
I0
tp1819
sg7
F11047.878479003906
sg8
I1000
sg9
I905
sa(dp1820
g5
(F0.476
F0.858
F0.843
I958
I0
tp1821
sg7
F11060.115160942078
sg8
I1000
sg9
I906
sa(dp1822
g5
(F0.476
F0.856
F0.839
I958
I0
tp1823
sg7
F11072.210959911346
sg8
I1000
sg9
I907
sa(dp1824
g5
(F0.476
F0.866
F0.838
I957
I0
tp1825
sg7
F11084.218324899673
sg8
I1000
sg9
I908
sa(dp1826
g5
(F0.476
F0.865
F0.837
I958
I0
tp1827
sg7
F11096.233500003815
sg8
I1000
sg9
I909
sa(dp1828
g5
(F0.476
F0.861
F0.837
I958
I0
tp1829
sg7
F11108.260282993317
sg8
I1000
sg9
I910
sa(dp1830
g5
(F0.476
F0.862
F0.839
I957
I0
tp1831
sg7
F11120.263013839722
sg8
I1000
sg9
I911
sa(dp1832
g5
(F0.476
F0.859
F0.837
I957
I0
tp1833
sg7
F11132.296200037003
sg8
I1000
sg9
I912
sa(dp1834
g5
(F0.476
F0.866
F0.839
I957
I0
tp1835
sg7
F11144.319685935974
sg8
I1000
sg9
I913
sa(dp1836
g5
(F0.476
F0.864
F0.842
I957
I0
tp1837
sg7
F11156.520656824112
sg8
I1000
sg9
I914
sa(dp1838
g5
(F0.476
F0.881
F0.842
I957
I0
tp1839
sg7
F11168.765224933624
sg8
I1000
sg9
I915
sa(dp1840
g5
(F0.476
F0.88
F0.844
I957
I0
tp1841
sg7
F11180.909811973572
sg8
I1000
sg9
I916
sa(dp1842
g5
(F0.476
F0.866
F0.845
I957
I0
tp1843
sg7
F11192.976152896881
sg8
I1000
sg9
I917
sa(dp1844
g5
(F0.476
F0.868
F0.845
I957
I0
tp1845
sg7
F11205.081996917725
sg8
I1000
sg9
I918
sa(dp1846
g5
(F0.476
F0.863
F0.842
I958
I0
tp1847
sg7
F11217.182356834412
sg8
I1000
sg9
I919
sa(dp1848
g5
(F0.476
F0.866
F0.839
I958
I0
tp1849
sg7
F11229.266420841217
sg8
I1000
sg9
I920
sa(dp1850
g5
(F0.477
F0.871
F0.84
I958
I0
tp1851
sg7
F11241.384809017181
sg8
I1000
sg9
I921
sa(dp1852
g5
(F0.477
F0.877
F0.842
I958
I0
tp1853
sg7
F11253.487905979156
sg8
I1000
sg9
I922
sa(dp1854
g5
(F0.477
F0.864
F0.844
I959
I0
tp1855
sg7
F11265.577925920486
sg8
I1000
sg9
I923
sa(dp1856
g5
(F0.477
F0.872
F0.84
I958
I0
tp1857
sg7
F11277.65832400322
sg8
I1000
sg9
I924
sa(dp1858
g5
(F0.476
F0.885
F0.841
I958
I0
tp1859
sg7
F11289.863205909729
sg8
I1000
sg9
I925
sa(dp1860
g5
(F0.476
F0.883
F0.844
I958
I0
tp1861
sg7
F11301.891903877258
sg8
I1000
sg9
I926
sa(dp1862
g5
(F0.476
F0.879
F0.844
I958
I0
tp1863
sg7
F11313.941470861435
sg8
I1000
sg9
I927
sa(dp1864
g5
(F0.476
F0.873
F0.842
I958
I0
tp1865
sg7
F11326.026460886002
sg8
I1000
sg9
I928
sa(dp1866
g5
(F0.476
F0.876
F0.84
I957
I0
tp1867
sg7
F11338.132395982742
sg8
I1000
sg9
I929
sa(dp1868
g5
(F0.476
F0.887
F0.839
I957
I0
tp1869
sg7
F11350.072667837143
sg8
I1000
sg9
I930
sa(dp1870
g5
(F0.476
F0.903
F0.844
I957
I0
tp1871
sg7
F11362.066970825195
sg8
I1000
sg9
I931
sa(dp1872
g5
(F0.476
F0.884
F0.844
I957
I0
tp1873
sg7
F11374.018017053604
sg8
I1000
sg9
I932
sa(dp1874
g5
(F0.477
F0.88
F0.844
I956
I0
tp1875
sg7
F11386.01699590683
sg8
I1000
sg9
I933
sa(dp1876
g5
(F0.477
F0.882
F0.841
I956
I0
tp1877
sg7
F11397.962939023972
sg8
I1000
sg9
I934
sa(dp1878
g5
(F0.477
F0.88
F0.839
I957
I0
tp1879
sg7
F11410.046782970428
sg8
I1000
sg9
I935
sa(dp1880
g5
(F0.477
F0.877
F0.84
I957
I0
tp1881
sg7
F11421.87006688118
sg8
I1000
sg9
I936
sa(dp1882
g5
(F0.477
F0.887
F0.841
I956
I0
tp1883
sg7
F11433.785559892654
sg8
I1000
sg9
I937
sa(dp1884
g5
(F0.477
F0.874
F0.844
I959
I0
tp1885
sg7
F11445.683646917343
sg8
I1000
sg9
I938
sa(dp1886
g5
(F0.477
F0.869
F0.845
I959
I0
tp1887
sg7
F11457.745450019836
sg8
I1000
sg9
I939
sa(dp1888
g5
(F0.477
F0.878
F0.844
I960
I0
tp1889
sg7
F11469.719152927399
sg8
I1000
sg9
I940
sa(dp1890
g5
(F0.477
F0.878
F0.843
I960
I0
tp1891
sg7
F11481.729132890701
sg8
I1000
sg9
I941
sa(dp1892
g5
(F0.477
F0.882
F0.84
I961
I0
tp1893
sg7
F11494.513669967651
sg8
I1000
sg9
I942
sa(dp1894
g5
(F0.477
F0.885
F0.839
I961
I0
tp1895
sg7
F11506.576653003693
sg8
I1000
sg9
I943
sa(dp1896
g5
(F0.477
F0.869
F0.837
I961
I0
tp1897
sg7
F11518.655163049698
sg8
I1000
sg9
I944
sa(dp1898
g5
(F0.477
F0.87
F0.837
I959
I0
tp1899
sg7
F11530.760759830475
sg8
I1000
sg9
I945
sa(dp1900
g5
(F0.477
F0.892
F0.837
I959
I0
tp1901
sg7
F11542.860234975815
sg8
I1000
sg9
I946
sa(dp1902
g5
(F0.477
F0.897
F0.836
I959
I0
tp1903
sg7
F11554.830905914307
sg8
I1000
sg9
I947
sa(dp1904
g5
(F0.477
F0.881
F0.837
I960
I0
tp1905
sg7
F11566.841732025146
sg8
I1000
sg9
I948
sa(dp1906
g5
(F0.477
F0.869
F0.835
I961
I0
tp1907
sg7
F11578.854935884476
sg8
I1000
sg9
I949
sa(dp1908
g5
(F0.477
F0.865
F0.838
I961
I0
tp1909
sg7
F11590.975371837616
sg8
I1000
sg9
I950
sa(dp1910
g5
(F0.477
F0.866
F0.839
I960
I0
tp1911
sg7
F11603.045843839645
sg8
I1000
sg9
I951
sa(dp1912
g5
(F0.477
F0.852
F0.837
I959
I0
tp1913
sg7
F11615.022416830063
sg8
I1000
sg9
I952
sa(dp1914
g5
(F0.477
F0.852
F0.839
I959
I0
tp1915
sg7
F11627.217694044113
sg8
I1000
sg9
I953
sa(dp1916
g5
(F0.477
F0.855
F0.842
I959
I0
tp1917
sg7
F11639.41363286972
sg8
I1000
sg9
I954
sa(dp1918
g5
(F0.477
F0.856
F0.841
I959
I0
tp1919
sg7
F11651.557764053345
sg8
I1000
sg9
I955
sa(dp1920
g5
(F0.477
F0.842
F0.844
I960
I0
tp1921
sg7
F11663.771816015244
sg8
I1000
sg9
I956
sa(dp1922
g5
(F0.477
F0.85
F0.841
I960
I0
tp1923
sg7
F11676.013929843903
sg8
I1000
sg9
I957
sa(dp1924
g5
(F0.477
F0.84
F0.842
I960
I0
tp1925
sg7
F11688.21758389473
sg8
I1000
sg9
I958
sa(dp1926
g5
(F0.477
F0.845
F0.84
I960
I0
tp1927
sg7
F11700.407407999039
sg8
I1000
sg9
I959
sa(dp1928
g5
(F0.477
F0.859
F0.837
I960
I0
tp1929
sg7
F11712.629297971725
sg8
I1000
sg9
I960
sa(dp1930
g5
(F0.477
F0.859
F0.84
I960
I0
tp1931
sg7
F11724.821166992188
sg8
I1000
sg9
I961
sa(dp1932
g5
(F0.477
F0.873
F0.837
I960
I0
tp1933
sg7
F11736.880445957184
sg8
I1000
sg9
I962
sa(dp1934
g5
(F0.477
F0.862
F0.833
I959
I0
tp1935
sg7
F11748.949271917343
sg8
I1000
sg9
I963
sa(dp1936
g5
(F0.477
F0.851
F0.831
I959
I0
tp1937
sg7
F11761.044925928116
sg8
I1000
sg9
I964
sa(dp1938
g5
(F0.477
F0.857
F0.826
I959
I0
tp1939
sg7
F11773.179306983948
sg8
I1000
sg9
I965
sa(dp1940
g5
(F0.477
F0.859
F0.827
I959
I0
tp1941
sg7
F11785.317404031754
sg8
I1000
sg9
I966
sa(dp1942
g5
(F0.477
F0.866
F0.831
I958
I0
tp1943
sg7
F11797.336061000824
sg8
I1000
sg9
I967
sa(dp1944
g5
(F0.477
F0.875
F0.829
I958
I0
tp1945
sg7
F11809.338721036911
sg8
I1000
sg9
I968
sa(dp1946
g5
(F0.477
F0.879
F0.83
I958
I0
tp1947
sg7
F11821.378803014755
sg8
I1000
sg9
I969
sa(dp1948
g5
(F0.477
F0.875
F0.833
I958
I0
tp1949
sg7
F11833.516190052032
sg8
I1000
sg9
I970
sa(dp1950
g5
(F0.477
F0.876
F0.837
I957
I0
tp1951
sg7
F11845.615574836731
sg8
I1000
sg9
I971
sa(dp1952
g5
(F0.477
F0.885
F0.839
I958
I0
tp1953
sg7
F11857.631420850754
sg8
I1000
sg9
I972
sa(dp1954
g5
(F0.477
F0.895
F0.839
I958
I0
tp1955
sg7
F11869.567893981934
sg8
I1000
sg9
I973
sa(dp1956
g5
(F0.477
F0.889
F0.837
I957
I0
tp1957
sg7
F11881.55755186081
sg8
I1000
sg9
I974
sa(dp1958
g5
(F0.477
F0.886
F0.84
I957
I0
tp1959
sg7
F11893.548687934875
sg8
I1000
sg9
I975
sa(dp1960
g5
(F0.477
F0.876
F0.84
I957
I0
tp1961
sg7
F11905.459228992462
sg8
I1000
sg9
I976
sa(dp1962
g5
(F0.477
F0.889
F0.842
I956
I0
tp1963
sg7
F11917.453533887863
sg8
I1000
sg9
I977
sa(dp1964
g5
(F0.477
F0.889
F0.84
I956
I0
tp1965
sg7
F11929.446794986725
sg8
I1000
sg9
I978
sa(dp1966
g5
(F0.477
F0.89
F0.84
I956
I0
tp1967
sg7
F11941.335243940353
sg8
I1000
sg9
I979
sa(dp1968
g5
(F0.477
F0.889
F0.841
I954
I0
tp1969
sg7
F11953.181377887726
sg8
I1000
sg9
I980
sa(dp1970
g5
(F0.477
F0.887
F0.84
I955
I0
tp1971
sg7
F11965.155916929245
sg8
I1000
sg9
I981
sa(dp1972
g5
(F0.477
F0.902
F0.84
I954
I0
tp1973
sg7
F11977.078439950943
sg8
I1000
sg9
I982
sa(dp1974
g5
(F0.477
F0.909
F0.845
I953
I0
tp1975
sg7
F11988.84974694252
sg8
I1000
sg9
I983
sa(dp1976
g5
(F0.477
F0.886
F0.843
I953
I0
tp1977
sg7
F12000.73441696167
sg8
I1000
sg9
I984
sa(dp1978
g5
(F0.477
F0.868
F0.839
I953
I0
tp1979
sg7
F12012.575809001923
sg8
I1000
sg9
I985
sa(dp1980
g5
(F0.477
F0.886
F0.837
I953
I0
tp1981
sg7
F12024.374811887741
sg8
I1000
sg9
I986
sa(dp1982
g5
(F0.477
F0.882
F0.837
I953
I0
tp1983
sg7
F12036.165900945663
sg8
I1000
sg9
I987
sa(dp1984
g5
(F0.477
F0.892
F0.841
I953
I0
tp1985
sg7
F12047.963296890259
sg8
I1000
sg9
I988
sa(dp1986
g5
(F0.477
F0.899
F0.844
I954
I0
tp1987
sg7
F12059.661442995071
sg8
I1000
sg9
I989
sa(dp1988
g5
(F0.477
F0.897
F0.841
I953
I0
tp1989
sg7
F12071.41720199585
sg8
I1000
sg9
I990
sa(dp1990
g5
(F0.477
F0.884
F0.845
I952
I0
tp1991
sg7
F12083.17441701889
sg8
I1000
sg9
I991
sa(dp1992
g5
(F0.477
F0.893
F0.841
I952
I0
tp1993
sg7
F12095.565055847168
sg8
I1000
sg9
I992
sa(dp1994
g5
(F0.477
F0.894
F0.843
I952
I0
tp1995
sg7
F12107.373996019363
sg8
I1000
sg9
I993
sa(dp1996
g5
(F0.477
F0.893
F0.84
I952
I0
tp1997
sg7
F12119.120213031769
sg8
I1000
sg9
I994
sa(dp1998
g5
(F0.477
F0.888
F0.84
I952
I0
tp1999
sg7
F12130.899844884872
sg8
I1000
sg9
I995
sa(dp2000
g5
(F0.477
F0.888
F0.835
I952
I0
tp2001
sg7
F12142.77968287468
sg8
I1000
sg9
I996
sa(dp2002
g5
(F0.477
F0.897
F0.839
I952
I0
tp2003
sg7
F12154.52925491333
sg8
I1000
sg9
I997
sa(dp2004
g5
(F0.477
F0.886
F0.838
I952
I0
tp2005
sg7
F12166.322909832
sg8
I1000
sg9
I998
sa(dp2006
g5
(F0.477
F0.894
F0.834
I952
I0
tp2007
sg7
F12178.15530705452
sg8
I1000
sg9
I999
sa(dp2008
g5
(F0.477
F0.887
F0.839
I952
I0
tp2009
sg7
F12190.052006959915
sg8
I1000
sg9
I1000
sa(dp2010
g5
(F0.477
F0.866
F0.843
I952
I0
tp2011
sg7
F12201.919313907623
sg8
I1000
sg9
I1001
sa(dp2012
g5
(F0.477
F0.87
F0.844
I951
I0
tp2013
sg7
F12213.770822048187
sg8
I1000
sg9
I1002
sa(dp2014
g5
(F0.477
F0.878
F0.843
I951
I0
tp2015
sg7
F12225.729413986206
sg8
I1000
sg9
I1003
sa(dp2016
g5
(F0.477
F0.882
F0.842
I951
I0
tp2017
sg7
F12237.611088991165
sg8
I1000
sg9
I1004
sa(dp2018
g5
(F0.477
F0.854
F0.842
I953
I0
tp2019
sg7
F12249.599081993103
sg8
I1000
sg9
I1005
sa(dp2020
g5
(F0.477
F0.867
F0.842
I953
I0
tp2021
sg7
F12261.725141048431
sg8
I1000
sg9
I1006
sa(dp2022
g5
(F0.477
F0.875
F0.842
I952
I0
tp2023
sg7
F12273.814201831818
sg8
I1000
sg9
I1007
sa(dp2024
g5
(F0.477
F0.871
F0.843
I951
I0
tp2025
sg7
F12285.750824928284
sg8
I1000
sg9
I1008
sa(dp2026
g5
(F0.477
F0.882
F0.844
I951
I0
tp2027
sg7
F12297.611436843872
sg8
I1000
sg9
I1009
sa(dp2028
g5
(F0.477
F0.883
F0.842
I950
I0
tp2029
sg7
F12309.503123998642
sg8
I1000
sg9
I1010
sa(dp2030
g5
(F0.477
F0.898
F0.845
I950
I0
tp2031
sg7
F12321.36321401596
sg8
I1000
sg9
I1011
sa(dp2032
g5
(F0.477
F0.871
F0.845
I951
I0
tp2033
sg7
F12333.40294599533
sg8
I1000
sg9
I1012
sa(dp2034
g5
(F0.477
F0.867
F0.845
I951
I0
tp2035
sg7
F12345.50815486908
sg8
I1000
sg9
I1013
sa(dp2036
g5
(F0.477
F0.86
F0.845
I952
I0
tp2037
sg7
F12357.439937829971
sg8
I1000
sg9
I1014
sa(dp2038
g5
(F0.477
F0.86
F0.844
I952
I0
tp2039
sg7
F12369.534493923187
sg8
I1000
sg9
I1015
sa(dp2040
g5
(F0.477
F0.849
F0.845
I952
I0
tp2041
sg7
F12381.632611989975
sg8
I1000
sg9
I1016
sa(dp2042
g5
(F0.477
F0.86
F0.843
I952
I0
tp2043
sg7
F12393.821759939194
sg8
I1000
sg9
I1017
sa(dp2044
g5
(F0.477
F0.859
F0.849
I952
I0
tp2045
sg7
F12406.028267860413
sg8
I1000
sg9
I1018
sa(dp2046
g5
(F0.477
F0.856
F0.85
I953
I0
tp2047
sg7
F12418.273862838745
sg8
I1000
sg9
I1019
sa(dp2048
g5
(F0.477
F0.851
F0.848
I953
I0
tp2049
sg7
F12430.403336048126
sg8
I1000
sg9
I1020
sa(dp2050
g5
(F0.477
F0.852
F0.85
I953
I0
tp2051
sg7
F12442.54071187973
sg8
I1000
sg9
I1021
sa(dp2052
g5
(F0.477
F0.847
F0.851
I953
I0
tp2053
sg7
F12454.696362018585
sg8
I1000
sg9
I1022
sa(dp2054
g5
(F0.477
F0.857
F0.85
I953
I0
tp2055
sg7
F12466.771786928177
sg8
I1000
sg9
I1023
sa(dp2056
g5
(F0.477
F0.842
F0.85
I954
I0
tp2057
sg7
F12478.943372011185
sg8
I1000
sg9
I1024
sa(dp2058
g5
(F0.478
F0.836
F0.85
I954
I0
tp2059
sg7
F12491.155200004578
sg8
I1000
sg9
I1025
sa(dp2060
g5
(F0.478
F0.845
F0.849
I954
I0
tp2061
sg7
F12503.361008882523
sg8
I1000
sg9
I1026
sa(dp2062
g5
(F0.478
F0.84
F0.848
I954
I0
tp2063
sg7
F12515.521412849426
sg8
I1000
sg9
I1027
sa(dp2064
g5
(F0.478
F0.836
F0.849
I953
I0
tp2065
sg7
F12527.685819864273
sg8
I1000
sg9
I1028
sa(dp2066
g5
(F0.478
F0.849
F0.848
I953
I0
tp2067
sg7
F12539.855478048325
sg8
I1000
sg9
I1029
sa(dp2068
g5
(F0.478
F0.842
F0.851
I953
I0
tp2069
sg7
F12552.08660697937
sg8
I1000
sg9
I1030
sa(dp2070
g5
(F0.478
F0.84
F0.848
I953
I0
tp2071
sg7
F12564.17300105095
sg8
I1000
sg9
I1031
sa(dp2072
g5
(F0.478
F0.847
F0.848
I953
I0
tp2073
sg7
F12576.310063838959
sg8
I1000
sg9
I1032
sa(dp2074
g5
(F0.478
F0.849
F0.848
I953
I0
tp2075
sg7
F12588.450635910034
sg8
I1000
sg9
I1033
sa(dp2076
g5
(F0.478
F0.857
F0.85
I951
I0
tp2077
sg7
F12600.561033010483
sg8
I1000
sg9
I1034
sa(dp2078
g5
(F0.478
F0.85
F0.85
I950
I0
tp2079
sg7
F12612.643172979355
sg8
I1000
sg9
I1035
sa(dp2080
g5
(F0.478
F0.857
F0.848
I951
I0
tp2081
sg7
F12624.60485291481
sg8
I1000
sg9
I1036
sa(dp2082
g5
(F0.478
F0.85
F0.847
I951
I0
tp2083
sg7
F12636.687513828278
sg8
I1000
sg9
I1037
sa(dp2084
g5
(F0.478
F0.858
F0.846
I949
I0
tp2085
sg7
F12648.746574878693
sg8
I1000
sg9
I1038
sa(dp2086
g5
(F0.478
F0.857
F0.848
I950
I0
tp2087
sg7
F12660.78082203865
sg8
I1000
sg9
I1039
sa(dp2088
g5
(F0.478
F0.863
F0.848
I950
I0
tp2089
sg7
F12672.798120975494
sg8
I1000
sg9
I1040
sa(dp2090
g5
(F0.478
F0.851
F0.849
I950
I0
tp2091
sg7
F12684.772568941116
sg8
I1000
sg9
I1041
sa(dp2092
g5
(F0.478
F0.846
F0.854
I950
I0
tp2093
sg7
F12697.530146837234
sg8
I1000
sg9
I1042
sa(dp2094
g5
(F0.478
F0.851
F0.854
I950
I0
tp2095
sg7
F12709.487339019775
sg8
I1000
sg9
I1043
sa(dp2096
g5
(F0.478
F0.844
F0.853
I950
I0
tp2097
sg7
F12721.541517972946
sg8
I1000
sg9
I1044
sa(dp2098
g5
(F0.478
F0.845
F0.852
I950
I0
tp2099
sg7
F12733.741785049438
sg8
I1000
sg9
I1045
sa(dp2100
g5
(F0.478
F0.856
F0.855
I950
I0
tp2101
sg7
F12745.870589971542
sg8
I1000
sg9
I1046
sa(dp2102
g5
(F0.478
F0.858
F0.856
I951
I0
tp2103
sg7
F12757.969238996506
sg8
I1000
sg9
I1047
sa(dp2104
g5
(F0.478
F0.841
F0.859
I953
I0
tp2105
sg7
F12769.9488530159
sg8
I1000
sg9
I1048
sa(dp2106
g5
(F0.478
F0.837
F0.862
I953
I0
tp2107
sg7
F12782.233978033066
sg8
I1000
sg9
I1049
sa(dp2108
g5
(F0.478
F0.844
F0.861
I954
I0
tp2109
sg7
F12794.504294872284
sg8
I1000
sg9
I1050
sa(dp2110
g5
(F0.478
F0.827
F0.857
I954
I0
tp2111
sg7
F12806.819547891617
sg8
I1000
sg9
I1051
sa(dp2112
g5
(F0.478
F0.826
F0.856
I954
I0
tp2113
sg7
F12819.071082830429
sg8
I1000
sg9
I1052
sa(dp2114
g5
(F0.478
F0.842
F0.853
I953
I0
tp2115
sg7
F12831.192570924759
sg8
I1000
sg9
I1053
sa(dp2116
g5
(F0.478
F0.856
F0.85
I953
I0
tp2117
sg7
F12843.370406866074
sg8
I1000
sg9
I1054
sa(dp2118
g5
(F0.478
F0.865
F0.849
I953
I0
tp2119
sg7
F12855.449849843979
sg8
I1000
sg9
I1055
sa(dp2120
g5
(F0.478
F0.872
F0.851
I953
I0
tp2121
sg7
F12867.505839824677
sg8
I1000
sg9
I1056
sa(dp2122
g5
(F0.478
F0.869
F0.853
I952
I0
tp2123
sg7
F12879.58278298378
sg8
I1000
sg9
I1057
sa(dp2124
g5
(F0.478
F0.846
F0.85
I953
I0
tp2125
sg7
F12891.640946865082
sg8
I1000
sg9
I1058
sa(dp2126
g5
(F0.478
F0.85
F0.849
I952
I0
tp2127
sg7
F12903.751698970795
sg8
I1000
sg9
I1059
sa(dp2128
g5
(F0.478
F0.854
F0.849
I952
I0
tp2129
sg7
F12915.864025831223
sg8
I1000
sg9
I1060
sa(dp2130
g5
(F0.478
F0.85
F0.849
I952
I0
tp2131
sg7
F12927.879380941391
sg8
I1000
sg9
I1061
sa(dp2132
g5
(F0.478
F0.865
F0.851
I949
I0
tp2133
sg7
F12939.848242044449
sg8
I1000
sg9
I1062
sa(dp2134
g5
(F0.478
F0.869
F0.849
I951
I0
tp2135
sg7
F12951.811035871506
sg8
I1000
sg9
I1063
sa(dp2136
g5
(F0.478
F0.885
F0.855
I949
I0
tp2137
sg7
F12963.749642848969
sg8
I1000
sg9
I1064
sa(dp2138
g5
(F0.478
F0.886
F0.851
I950
I0
tp2139
sg7
F12975.54197192192
sg8
I1000
sg9
I1065
sa(dp2140
g5
(F0.478
F0.895
F0.851
I950
I0
tp2141
sg7
F12987.330031871796
sg8
I1000
sg9
I1066
sa(dp2142
g5
(F0.478
F0.878
F0.847
I951
I0
tp2143
sg7
F12999.296336889267
sg8
I1000
sg9
I1067
sa(dp2144
g5
(F0.478
F0.878
F0.849
I950
I0
tp2145
sg7
F13011.228729009628
sg8
I1000
sg9
I1068
sa(dp2146
g5
(F0.478
F0.875
F0.849
I949
I0
tp2147
sg7
F13023.136817932129
sg8
I1000
sg9
I1069
sa(dp2148
g5
(F0.478
F0.876
F0.847
I948
I0
tp2149
sg7
F13035.129952907562
sg8
I1000
sg9
I1070
sa(dp2150
g5
(F0.478
F0.86
F0.853
I945
I0
tp2151
sg7
F13047.071979045868
sg8
I1000
sg9
I1071
sa(dp2152
g5
(F0.478
F0.856
F0.85
I944
I0
tp2153
sg7
F13059.103960990906
sg8
I1000
sg9
I1072
sa(dp2154
g5
(F0.478
F0.863
F0.852
I948
I0
tp2155
sg7
F13071.081581830978
sg8
I1000
sg9
I1073
sa(dp2156
g5
(F0.478
F0.865
F0.85
I948
I0
tp2157
sg7
F13082.979828834534
sg8
I1000
sg9
I1074
sa(dp2158
g5
(F0.478
F0.857
F0.846
I947
I0
tp2159
sg7
F13094.904476881027
sg8
I1000
sg9
I1075
sa(dp2160
g5
(F0.478
F0.86
F0.848
I948
I0
tp2161
sg7
F13106.775550842285
sg8
I1000
sg9
I1076
sa(dp2162
g5
(F0.478
F0.863
F0.85
I948
I0
tp2163
sg7
F13118.830435991287
sg8
I1000
sg9
I1077
sa(dp2164
g5
(F0.478
F0.85
F0.85
I949
I0
tp2165
sg7
F13130.921591043472
sg8
I1000
sg9
I1078
sa(dp2166
g5
(F0.478
F0.846
F0.851
I948
I0
tp2167
sg7
F13142.990826845169
sg8
I1000
sg9
I1079
sa(dp2168
g5
(F0.478
F0.848
F0.85
I948
I0
tp2169
sg7
F13154.986368894577
sg8
I1000
sg9
I1080
sa(dp2170
g5
(F0.478
F0.854
F0.851
I948
I0
tp2171
sg7
F13166.98558998108
sg8
I1000
sg9
I1081
sa(dp2172
g5
(F0.478
F0.855
F0.852
I949
I0
tp2173
sg7
F13178.927105903625
sg8
I1000
sg9
I1082
sa(dp2174
g5
(F0.478
F0.857
F0.849
I950
I0
tp2175
sg7
F13191.062017917633
sg8
I1000
sg9
I1083
sa(dp2176
g5
(F0.478
F0.855
F0.848
I950
I0
tp2177
sg7
F13203.197271823883
sg8
I1000
sg9
I1084
sa(dp2178
g5
(F0.478
F0.843
F0.846
I950
I0
tp2179
sg7
F13215.269724845886
sg8
I1000
sg9
I1085
sa(dp2180
g5
(F0.478
F0.853
F0.846
I949
I0
tp2181
sg7
F13227.357558012009
sg8
I1000
sg9
I1086
sa(dp2182
g5
(F0.478
F0.845
F0.851
I949
I0
tp2183
sg7
F13239.433094024658
sg8
I1000
sg9
I1087
sa(dp2184
g5
(F0.478
F0.867
F0.849
I949
I0
tp2185
sg7
F13251.396196842194
sg8
I1000
sg9
I1088
sa(dp2186
g5
(F0.478
F0.865
F0.85
I947
I0
tp2187
sg7
F13263.471748828888
sg8
I1000
sg9
I1089
sa(dp2188
g5
(F0.478
F0.852
F0.849
I948
I0
tp2189
sg7
F13275.482833862305
sg8
I1000
sg9
I1090
sa(dp2190
g5
(F0.478
F0.864
F0.849
I948
I0
tp2191
sg7
F13287.458070993423
sg8
I1000
sg9
I1091
sa(dp2192
g5
(F0.478
F0.861
F0.853
I948
I0
tp2193
sg7
F13300.043017864227
sg8
I1000
sg9
I1092
sa(dp2194
g5
(F0.478
F0.846
F0.851
I949
I0
tp2195
sg7
F13312.122242927551
sg8
I1000
sg9
I1093
sa(dp2196
g5
(F0.478
F0.838
F0.851
I949
I0
tp2197
sg7
F13324.210973024368
sg8
I1000
sg9
I1094
sa(dp2198
g5
(F0.478
F0.848
F0.851
I949
I0
tp2199
sg7
F13336.364723920822
sg8
I1000
sg9
I1095
sa(dp2200
g5
(F0.478
F0.853
F0.851
I949
I0
tp2201
sg7
F13348.549546003342
sg8
I1000
sg9
I1096
sa(dp2202
g5
(F0.478
F0.849
F0.851
I949
I0
tp2203
sg7
F13360.615685939789
sg8
I1000
sg9
I1097
sa(dp2204
g5
(F0.478
F0.85
F0.853
I949
I0
tp2205
sg7
F13372.65378499031
sg8
I1000
sg9
I1098
sa(dp2206
g5
(F0.478
F0.856
F0.851
I949
I0
tp2207
sg7
F13384.719205856323
sg8
I1000
sg9
I1099
sa(dp2208
g5
(F0.478
F0.868
F0.848
I948
I0
tp2209
sg7
F13396.67887187004
sg8
I1000
sg9
I1100
sa(dp2210
g5
(F0.478
F0.873
F0.846
I949
I0
tp2211
sg7
F13408.677701950073
sg8
I1000
sg9
I1101
sa(dp2212
g5
(F0.478
F0.875
F0.85
I950
I0
tp2213
sg7
F13420.568207025528
sg8
I1000
sg9
I1102
sa(dp2214
g5
(F0.478
F0.863
F0.849
I950
I0
tp2215
sg7
F13432.621984958649
sg8
I1000
sg9
I1103
sa(dp2216
g5
(F0.478
F0.866
F0.851
I950
I0
tp2217
sg7
F13444.584825992584
sg8
I1000
sg9
I1104
sa(dp2218
g5
(F0.478
F0.864
F0.847
I949
I0
tp2219
sg7
F13456.5921189785
sg8
I1000
sg9
I1105
sa(dp2220
g5
(F0.478
F0.858
F0.845
I948
I0
tp2221
sg7
F13468.577378034592
sg8
I1000
sg9
I1106
sa(dp2222
g5
(F0.478
F0.86
F0.837
I948
I0
tp2223
sg7
F13480.639322042465
sg8
I1000
sg9
I1107
sa(dp2224
g5
(F0.478
F0.861
F0.837
I947
I0
tp2225
sg7
F13492.670555830002
sg8
I1000
sg9
I1108
sa(dp2226
g5
(F0.478
F0.862
F0.838
I947
I0
tp2227
sg7
F13504.630507946014
sg8
I1000
sg9
I1109
sa(dp2228
g5
(F0.478
F0.859
F0.843
I950
I0
tp2229
sg7
F13516.657402992249
sg8
I1000
sg9
I1110
sa(dp2230
g5
(F0.478
F0.855
F0.842
I953
I0
tp2231
sg7
F13528.719177007675
sg8
I1000
sg9
I1111
sa(dp2232
g5
(F0.478
F0.852
F0.845
I953
I0
tp2233
sg7
F13540.86753988266
sg8
I1000
sg9
I1112
sa(dp2234
g5
(F0.478
F0.856
F0.843
I953
I0
tp2235
sg7
F13553.047471046448
sg8
I1000
sg9
I1113
sa(dp2236
g5
(F0.478
F0.864
F0.843
I954
I0
tp2237
sg7
F13565.094816923141
sg8
I1000
sg9
I1114
sa(dp2238
g5
(F0.478
F0.871
F0.843
I953
I0
tp2239
sg7
F13577.031384944916
sg8
I1000
sg9
I1115
sa(dp2240
g5
(F0.478
F0.862
F0.841
I953
I0
tp2241
sg7
F13589.071635961533
sg8
I1000
sg9
I1116
sa(dp2242
g5
(F0.478
F0.87
F0.84
I953
I0
tp2243
sg7
F13601.21037888527
sg8
I1000
sg9
I1117
sa(dp2244
g5
(F0.478
F0.863
F0.84
I953
I0
tp2245
sg7
F13613.30923295021
sg8
I1000
sg9
I1118
sa(dp2246
g5
(F0.478
F0.863
F0.84
I952
I0
tp2247
sg7
F13625.23480796814
sg8
I1000
sg9
I1119
sa(dp2248
g5
(F0.478
F0.862
F0.84
I951
I0
tp2249
sg7
F13637.159482955933
sg8
I1000
sg9
I1120
sa(dp2250
g5
(F0.478
F0.846
F0.84
I951
I0
tp2251
sg7
F13649.21472287178
sg8
I1000
sg9
I1121
sa(dp2252
g5
(F0.478
F0.855
F0.845
I952
I0
tp2253
sg7
F13661.373527050018
sg8
I1000
sg9
I1122
sa(dp2254
g5
(F0.478
F0.854
F0.844
I951
I0
tp2255
sg7
F13673.38766002655
sg8
I1000
sg9
I1123
sa(dp2256
g5
(F0.478
F0.844
F0.844
I954
I0
tp2257
sg7
F13685.53227186203
sg8
I1000
sg9
I1124
sa(dp2258
g5
(F0.478
F0.847
F0.845
I954
I0
tp2259
sg7
F13697.730978012085
sg8
I1000
sg9
I1125
sa(dp2260
g5
(F0.478
F0.854
F0.844
I954
I0
tp2261
sg7
F13709.733028888702
sg8
I1000
sg9
I1126
sa(dp2262
g5
(F0.478
F0.864
F0.838
I955
I0
tp2263
sg7
F13721.810223817825
sg8
I1000
sg9
I1127
sa(dp2264
g5
(F0.479
F0.855
F0.834
I957
I0
tp2265
sg7
F13734.014111995697
sg8
I1000
sg9
I1128
sa(dp2266
g5
(F0.478
F0.86
F0.834
I957
I0
tp2267
sg7
F13746.27265381813
sg8
I1000
sg9
I1129
sa(dp2268
g5
(F0.479
F0.859
F0.832
I957
I0
tp2269
sg7
F13758.445989847183
sg8
I1000
sg9
I1130
sa(dp2270
g5
(F0.479
F0.858
F0.833
I957
I0
tp2271
sg7
F13770.634263038635
sg8
I1000
sg9
I1131
sa(dp2272
g5
(F0.479
F0.856
F0.832
I956
I0
tp2273
sg7
F13782.770690917969
sg8
I1000
sg9
I1132
sa(dp2274
g5
(F0.479
F0.851
F0.83
I956
I0
tp2275
sg7
F13795.016687870026
sg8
I1000
sg9
I1133
sa(dp2276
g5
(F0.479
F0.859
F0.828
I956
I0
tp2277
sg7
F13807.232940912247
sg8
I1000
sg9
I1134
sa(dp2278
g5
(F0.479
F0.839
F0.831
I957
I0
tp2279
sg7
F13819.394556999207
sg8
I1000
sg9
I1135
sa(dp2280
g5
(F0.479
F0.833
F0.833
I958
I0
tp2281
sg7
F13831.712291002274
sg8
I1000
sg9
I1136
sa(dp2282
g5
(F0.479
F0.826
F0.833
I958
I0
tp2283
sg7
F13844.113152980804
sg8
I1000
sg9
I1137
sa(dp2284
g5
(F0.479
F0.827
F0.835
I956
I0
tp2285
sg7
F13856.569234848022
sg8
I1000
sg9
I1138
sa(dp2286
g5
(F0.479
F0.829
F0.832
I955
I0
tp2287
sg7
F13868.911161899567
sg8
I1000
sg9
I1139
sa(dp2288
g5
(F0.479
F0.833
F0.834
I955
I0
tp2289
sg7
F13881.199313879013
sg8
I1000
sg9
I1140
sa(dp2290
g5
(F0.479
F0.828
F0.834
I955
I0
tp2291
sg7
F13893.47111582756
sg8
I1000
sg9
I1141
sa(dp2292
g5
(F0.479
F0.831
F0.832
I955
I0
tp2293
sg7
F13906.49275302887
sg8
I1000
sg9
I1142
sa(dp2294
g5
(F0.479
F0.818
F0.832
I956
I0
tp2295
sg7
F13918.744873046875
sg8
I1000
sg9
I1143
sa(dp2296
g5
(F0.479
F0.823
F0.829
I956
I0
tp2297
sg7
F13931.12499499321
sg8
I1000
sg9
I1144
sa(dp2298
g5
(F0.479
F0.81
F0.829
I958
I0
tp2299
sg7
F13943.4817340374
sg8
I1000
sg9
I1145
sa(dp2300
g5
(F0.479
F0.828
F0.831
I958
I0
tp2301
sg7
F13955.908285856247
sg8
I1000
sg9
I1146
sa(dp2302
g5
(F0.479
F0.827
F0.832
I958
I0
tp2303
sg7
F13968.193008899689
sg8
I1000
sg9
I1147
sa(dp2304
g5
(F0.479
F0.835
F0.829
I958
I0
tp2305
sg7
F13980.51025891304
sg8
I1000
sg9
I1148
sa(dp2306
g5
(F0.479
F0.834
F0.834
I957
I0
tp2307
sg7
F13992.790379047394
sg8
I1000
sg9
I1149
sa(dp2308
g5
(F0.479
F0.835
F0.832
I957
I0
tp2309
sg7
F14005.113639831543
sg8
I1000
sg9
I1150
sa(dp2310
g5
(F0.479
F0.832
F0.831
I957
I0
tp2311
sg7
F14017.513458967209
sg8
I1000
sg9
I1151
sa(dp2312
g5
(F0.479
F0.84
F0.833
I957
I0
tp2313
sg7
F14029.918532848358
sg8
I1000
sg9
I1152
sa(dp2314
g5
(F0.479
F0.835
F0.833
I957
I0
tp2315
sg7
F14042.233623027802
sg8
I1000
sg9
I1153
sa(dp2316
g5
(F0.479
F0.828
F0.835
I957
I0
tp2317
sg7
F14054.615574836731
sg8
I1000
sg9
I1154
sa(dp2318
g5
(F0.479
F0.834
F0.832
I956
I0
tp2319
sg7
F14066.943243980408
sg8
I1000
sg9
I1155
sa(dp2320
g5
(F0.479
F0.839
F0.831
I957
I0
tp2321
sg7
F14079.152413845062
sg8
I1000
sg9
I1156
sa(dp2322
g5
(F0.479
F0.824
F0.829
I958
I0
tp2323
sg7
F14091.43434882164
sg8
I1000
sg9
I1157
sa(dp2324
g5
(F0.479
F0.842
F0.828
I960
I0
tp2325
sg7
F14103.946641921997
sg8
I1000
sg9
I1158
sa(dp2326
g5
(F0.479
F0.841
F0.829
I960
I0
tp2327
sg7
F14116.19547700882
sg8
I1000
sg9
I1159
sa(dp2328
g5
(F0.479
F0.846
F0.828
I960
I0
tp2329
sg7
F14128.574246883392
sg8
I1000
sg9
I1160
sa(dp2330
g5
(F0.479
F0.843
F0.825
I960
I0
tp2331
sg7
F14140.861520051956
sg8
I1000
sg9
I1161
sa(dp2332
g5
(F0.479
F0.849
F0.827
I960
I0
tp2333
sg7
F14153.193045854568
sg8
I1000
sg9
I1162
sa(dp2334
g5
(F0.479
F0.838
F0.829
I960
I0
tp2335
sg7
F14165.474244832993
sg8
I1000
sg9
I1163
sa(dp2336
g5
(F0.479
F0.834
F0.826
I966
I0
tp2337
sg7
F14177.916301965714
sg8
I1000
sg9
I1164
sa(dp2338
g5
(F0.479
F0.837
F0.825
I966
I0
tp2339
sg7
F14190.484529972076
sg8
I1000
sg9
I1165
sa(dp2340
g5
(F0.479
F0.839
F0.827
I966
I0
tp2341
sg7
F14202.942855834961
sg8
I1000
sg9
I1166
sa(dp2342
g5
(F0.479
F0.839
F0.827
I966
I0
tp2343
sg7
F14215.366117954254
sg8
I1000
sg9
I1167
sa(dp2344
g5
(F0.479
F0.849
F0.824
I966
I0
tp2345
sg7
F14227.853576898575
sg8
I1000
sg9
I1168
sa(dp2346
g5
(F0.479
F0.843
F0.823
I966
I0
tp2347
sg7
F14240.354267835617
sg8
I1000
sg9
I1169
sa(dp2348
g5
(F0.479
F0.833
F0.821
I965
I0
tp2349
sg7
F14252.823756933212
sg8
I1000
sg9
I1170
sa(dp2350
g5
(F0.479
F0.844
F0.823
I965
I0
tp2351
sg7
F14265.262341976166
sg8
I1000
sg9
I1171
sa(dp2352
g5
(F0.479
F0.839
F0.827
I965
I0
tp2353
sg7
F14277.647112846375
sg8
I1000
sg9
I1172
sa(dp2354
g5
(F0.479
F0.855
F0.829
I964
I0
tp2355
sg7
F14290.14712691307
sg8
I1000
sg9
I1173
sa(dp2356
g5
(F0.479
F0.854
F0.828
I963
I0
tp2357
sg7
F14302.487571001053
sg8
I1000
sg9
I1174
sa(dp2358
g5
(F0.479
F0.849
F0.829
I963
I0
tp2359
sg7
F14314.817744016647
sg8
I1000
sg9
I1175
sa(dp2360
g5
(F0.479
F0.848
F0.827
I962
I0
tp2361
sg7
F14327.21027302742
sg8
I1000
sg9
I1176
sa(dp2362
g5
(F0.479
F0.845
F0.83
I962
I0
tp2363
sg7
F14339.610963821411
sg8
I1000
sg9
I1177
sa(dp2364
g5
(F0.479
F0.841
F0.83
I962
I0
tp2365
sg7
F14352.204025030136
sg8
I1000
sg9
I1178
sa(dp2366
g5
(F0.479
F0.836
F0.828
I961
I0
tp2367
sg7
F14364.566184043884
sg8
I1000
sg9
I1179
sa(dp2368
g5
(F0.479
F0.832
F0.827
I961
I0
tp2369
sg7
F14376.909580945969
sg8
I1000
sg9
I1180
sa(dp2370
g5
(F0.479
F0.829
F0.824
I961
I0
tp2371
sg7
F14389.352906942368
sg8
I1000
sg9
I1181
sa(dp2372
g5
(F0.479
F0.821
F0.828
I961
I0
tp2373
sg7
F14401.699848890305
sg8
I1000
sg9
I1182
sa(dp2374
g5
(F0.479
F0.829
F0.829
I961
I0
tp2375
sg7
F14414.14757490158
sg8
I1000
sg9
I1183
sa(dp2376
g5
(F0.479
F0.808
F0.825
I963
I0
tp2377
sg7
F14426.674973964691
sg8
I1000
sg9
I1184
sa(dp2378
g5
(F0.479
F0.822
F0.826
I963
I0
tp2379
sg7
F14439.107964038849
sg8
I1000
sg9
I1185
sa(dp2380
g5
(F0.479
F0.827
F0.829
I963
I0
tp2381
sg7
F14451.523879051208
sg8
I1000
sg9
I1186
sa(dp2382
g5
(F0.479
F0.82
F0.832
I964
I0
tp2383
sg7
F14464.012260913849
sg8
I1000
sg9
I1187
sa(dp2384
g5
(F0.479
F0.82
F0.836
I963
I0
tp2385
sg7
F14476.467622041702
sg8
I1000
sg9
I1188
sa(dp2386
g5
(F0.479
F0.825
F0.834
I963
I0
tp2387
sg7
F14488.889274835587
sg8
I1000
sg9
I1189
sa(dp2388
g5
(F0.479
F0.82
F0.836
I962
I0
tp2389
sg7
F14501.295452833176
sg8
I1000
sg9
I1190
sa(dp2390
g5
(F0.479
F0.818
F0.836
I963
I0
tp2391
sg7
F14514.389472007751
sg8
I1000
sg9
I1191
sa(dp2392
g5
(F0.479
F0.813
F0.833
I962
I0
tp2393
sg7
F14526.820858955383
sg8
I1000
sg9
I1192
sa(dp2394
g5
(F0.479
F0.801
F0.83
I962
I0
tp2395
sg7
F14539.326184034348
sg8
I1000
sg9
I1193
sa(dp2396
g5
(F0.479
F0.806
F0.829
I962
I0
tp2397
sg7
F14551.824717998505
sg8
I1000
sg9
I1194
sa(dp2398
g5
(F0.479
F0.812
F0.827
I961
I0
tp2399
sg7
F14564.289650917053
sg8
I1000
sg9
I1195
sa(dp2400
g5
(F0.479
F0.802
F0.829
I960
I0
tp2401
sg7
F14576.621615886688
sg8
I1000
sg9
I1196
sa(dp2402
g5
(F0.479
F0.805
F0.829
I960
I0
tp2403
sg7
F14589.011642932892
sg8
I1000
sg9
I1197
sa(dp2404
g5
(F0.479
F0.817
F0.827
I960
I0
tp2405
sg7
F14601.361199855804
sg8
I1000
sg9
I1198
sa(dp2406
g5
(F0.479
F0.815
F0.83
I961
I0
tp2407
sg7
F14613.652993917465
sg8
I1000
sg9
I1199
sa(dp2408
g5
(F0.479
F0.812
F0.827
I960
I0
tp2409
sg7
F14625.8447868824
sg8
I1000
sg9
I1200
sa(dp2410
g5
(F0.479
F0.82
F0.825
I960
I0
tp2411
sg7
F14638.139766931534
sg8
I1000
sg9
I1201
sa(dp2412
g5
(F0.479
F0.82
F0.822
I961
I0
tp2413
sg7
F14650.431397914886
sg8
I1000
sg9
I1202
sa(dp2414
g5
(F0.479
F0.825
F0.823
I961
I0
tp2415
sg7
F14662.794380903244
sg8
I1000
sg9
I1203
sa(dp2416
g5
(F0.479
F0.82
F0.827
I960
I0
tp2417
sg7
F14675.052227020264
sg8
I1000
sg9
I1204
sa(dp2418
g5
(F0.479
F0.82
F0.822
I960
I0
tp2419
sg7
F14687.345752000809
sg8
I1000
sg9
I1205
sa(dp2420
g5
(F0.479
F0.822
F0.822
I961
I0
tp2421
sg7
F14699.63137793541
sg8
I1000
sg9
I1206
sa(dp2422
g5
(F0.479
F0.831
F0.823
I961
I0
tp2423
sg7
F14712.027513027191
sg8
I1000
sg9
I1207
sa(dp2424
g5
(F0.48
F0.812
F0.826
I961
I0
tp2425
sg7
F14724.47776889801
sg8
I1000
sg9
I1208
sa(dp2426
g5
(F0.48
F0.806
F0.829
I962
I0
tp2427
sg7
F14736.79747891426
sg8
I1000
sg9
I1209
sa(dp2428
g5
(F0.48
F0.798
F0.827
I961
I0
tp2429
sg7
F14749.323678016663
sg8
I1000
sg9
I1210
sa(dp2430
g5
(F0.48
F0.795
F0.829
I961
I0
tp2431
sg7
F14761.721400976181
sg8
I1000
sg9
I1211
sa(dp2432
g5
(F0.48
F0.8
F0.833
I961
I0
tp2433
sg7
F14774.160277843475
sg8
I1000
sg9
I1212
sa(dp2434
g5
(F0.48
F0.812
F0.835
I961
I0
tp2435
sg7
F14786.62007188797
sg8
I1000
sg9
I1213
sa(dp2436
g5
(F0.479
F0.82
F0.838
I961
I0
tp2437
sg7
F14799.080967903137
sg8
I1000
sg9
I1214
sa(dp2438
g5
(F0.479
F0.821
F0.839
I961
I0
tp2439
sg7
F14811.487954854965
sg8
I1000
sg9
I1215
sa(dp2440
g5
(F0.479
F0.826
F0.841
I961
I0
tp2441
sg7
F14823.823235988617
sg8
I1000
sg9
I1216
sa(dp2442
g5
(F0.479
F0.824
F0.841
I963
I0
tp2443
sg7
F14836.194031000137
sg8
I1000
sg9
I1217
sa(dp2444
g5
(F0.479
F0.816
F0.839
I963
I0
tp2445
sg7
F14848.59418797493
sg8
I1000
sg9
I1218
sa(dp2446
g5
(F0.479
F0.828
F0.842
I964
I0
tp2447
sg7
F14860.977550983429
sg8
I1000
sg9
I1219
sa(dp2448
g5
(F0.479
F0.828
F0.838
I965
I0
tp2449
sg7
F14873.365732908249
sg8
I1000
sg9
I1220
sa(dp2450
g5
(F0.479
F0.824
F0.837
I965
I0
tp2451
sg7
F14885.847051858902
sg8
I1000
sg9
I1221
sa(dp2452
g5
(F0.479
F0.811
F0.839
I968
I0
tp2453
sg7
F14898.328680038452
sg8
I1000
sg9
I1222
sa(dp2454
g5
(F0.479
F0.813
F0.835
I968
I0
tp2455
sg7
F14910.898041009903
sg8
I1000
sg9
I1223
sa(dp2456
g5
(F0.479
F0.804
F0.836
I968
I0
tp2457
sg7
F14923.373749017715
sg8
I1000
sg9
I1224
sa(dp2458
g5
(F0.479
F0.819
F0.838
I968
I0
tp2459
sg7
F14935.842779874802
sg8
I1000
sg9
I1225
sa(dp2460
g5
(F0.479
F0.8
F0.836
I966
I0
tp2461
sg7
F14948.317286014557
sg8
I1000
sg9
I1226
sa(dp2462
g5
(F0.48
F0.796
F0.841
I967
I0
tp2463
sg7
F14960.847465991974
sg8
I1000
sg9
I1227
sa(dp2464
g5
(F0.48
F0.788
F0.841
I965
I0
tp2465
sg7
F14973.275820970535
sg8
I1000
sg9
I1228
sa(dp2466
g5
(F0.48
F0.789
F0.841
I964
I0
tp2467
sg7
F14985.749089956284
sg8
I1000
sg9
I1229
sa(dp2468
g5
(F0.48
F0.791
F0.838
I964
I0
tp2469
sg7
F14998.199576854706
sg8
I1000
sg9
I1230
sa(dp2470
g5
(F0.48
F0.792
F0.84
I963
I0
tp2471
sg7
F15010.650296926498
sg8
I1000
sg9
I1231
sa(dp2472
g5
(F0.48
F0.794
F0.839
I962
I0
tp2473
sg7
F15023.110719919205
sg8
I1000
sg9
I1232
sa(dp2474
g5
(F0.48
F0.789
F0.841
I963
I0
tp2475
sg7
F15035.603780031204
sg8
I1000
sg9
I1233
sa(dp2476
g5
(F0.48
F0.803
F0.841
I962
I0
tp2477
sg7
F15048.077036857605
sg8
I1000
sg9
I1234
sa(dp2478
g5
(F0.48
F0.803
F0.84
I963
I0
tp2479
sg7
F15060.564856052399
sg8
I1000
sg9
I1235
sa(dp2480
g5
(F0.48
F0.805
F0.839
I963
I0
tp2481
sg7
F15072.943650007248
sg8
I1000
sg9
I1236
sa(dp2482
g5
(F0.48
F0.788
F0.838
I963
I0
tp2483
sg7
F15085.416542053223
sg8
I1000
sg9
I1237
sa(dp2484
g5
(F0.48
F0.797
F0.838
I963
I0
tp2485
sg7
F15097.884037017822
sg8
I1000
sg9
I1238
sa(dp2486
g5
(F0.48
F0.794
F0.834
I963
I0
tp2487
sg7
F15110.413730859756
sg8
I1000
sg9
I1239
sa(dp2488
g5
(F0.48
F0.777
F0.836
I963
I0
tp2489
sg7
F15123.600478887558
sg8
I1000
sg9
I1240
sa(dp2490
g5
(F0.48
F0.776
F0.835
I962
I0
tp2491
sg7
F15136.271518945694
sg8
I1000
sg9
I1241
sa(dp2492
g5
(F0.48
F0.783
F0.834
I962
I0
tp2493
sg7
F15148.7993350029
sg8
I1000
sg9
I1242
sa(dp2494
g5
(F0.48
F0.774
F0.835
I962
I0
tp2495
sg7
F15161.358731031418
sg8
I1000
sg9
I1243
sa(dp2496
g5
(F0.48
F0.778
F0.836
I962
I0
tp2497
sg7
F15173.832234859467
sg8
I1000
sg9
I1244
sa(dp2498
g5
(F0.48
F0.789
F0.838
I962
I0
tp2499
sg7
F15186.453927993774
sg8
I1000
sg9
I1245
sa(dp2500
g5
(F0.48
F0.796
F0.84
I962
I0
tp2501
sg7
F15199.008074998856
sg8
I1000
sg9
I1246
sa(dp2502
g5
(F0.48
F0.807
F0.842
I961
I0
tp2503
sg7
F15211.502442836761
sg8
I1000
sg9
I1247
sa(dp2504
g5
(F0.48
F0.805
F0.841
I961
I0
tp2505
sg7
F15223.949995994568
sg8
I1000
sg9
I1248
sa(dp2506
g5
(F0.48
F0.818
F0.84
I961
I0
tp2507
sg7
F15236.368780851364
sg8
I1000
sg9
I1249
sa(dp2508
g5
(F0.48
F0.819
F0.845
I961
I0
tp2509
sg7
F15248.90812087059
sg8
I1000
sg9
I1250
sa(dp2510
g5
(F0.48
F0.808
F0.844
I962
I0
tp2511
sg7
F15261.442602872849
sg8
I1000
sg9
I1251
sa(dp2512
g5
(F0.48
F0.821
F0.842
I962
I0
tp2513
sg7
F15273.863255023956
sg8
I1000
sg9
I1252
sa(dp2514
g5
(F0.48
F0.818
F0.843
I962
I0
tp2515
sg7
F15286.318541049957
sg8
I1000
sg9
I1253
sa(dp2516
g5
(F0.48
F0.822
F0.843
I962
I0
tp2517
sg7
F15298.927508831024
sg8
I1000
sg9
I1254
sa(dp2518
g5
(F0.48
F0.818
F0.844
I966
I0
tp2519
sg7
F15311.457608938217
sg8
I1000
sg9
I1255
sa(dp2520
g5
(F0.48
F0.804
F0.844
I966
I0
tp2521
sg7
F15323.989876031876
sg8
I1000
sg9
I1256
sa(dp2522
g5
(F0.48
F0.804
F0.843
I966
I0
tp2523
sg7
F15336.560597896576
sg8
I1000
sg9
I1257
sa(dp2524
g5
(F0.48
F0.785
F0.844
I966
I0
tp2525
sg7
F15349.131938934326
sg8
I1000
sg9
I1258
sa(dp2526
g5
(F0.48
F0.784
F0.844
I966
I0
tp2527
sg7
F15361.642659902573
sg8
I1000
sg9
I1259
sa(dp2528
g5
(F0.48
F0.786
F0.843
I965
I0
tp2529
sg7
F15374.240536928177
sg8
I1000
sg9
I1260
sa(dp2530
g5
(F0.48
F0.784
F0.842
I964
I0
tp2531
sg7
F15386.815690040588
sg8
I1000
sg9
I1261
sa(dp2532
g5
(F0.48
F0.781
F0.844
I965
I0
tp2533
sg7
F15399.403933048248
sg8
I1000
sg9
I1262
sa(dp2534
g5
(F0.48
F0.786
F0.846
I965
I0
tp2535
sg7
F15412.010049819946
sg8
I1000
sg9
I1263
sa(dp2536
g5
(F0.48
F0.781
F0.846
I965
I0
tp2537
sg7
F15424.556686878204
sg8
I1000
sg9
I1264
sa(dp2538
g5
(F0.48
F0.794
F0.843
I965
I0
tp2539
sg7
F15437.097867012024
sg8
I1000
sg9
I1265
sa(dp2540
g5
(F0.48
F0.798
F0.844
I965
I0
tp2541
sg7
F15449.617467880249
sg8
I1000
sg9
I1266
sa(dp2542
g5
(F0.48
F0.792
F0.845
I965
I0
tp2543
sg7
F15462.159538030624
sg8
I1000
sg9
I1267
sa(dp2544
g5
(F0.48
F0.799
F0.848
I964
I0
tp2545
sg7
F15474.750201940536
sg8
I1000
sg9
I1268
sa(dp2546
g5
(F0.48
F0.799
F0.846
I964
I0
tp2547
sg7
F15487.231957912445
sg8
I1000
sg9
I1269
sa(dp2548
g5
(F0.48
F0.787
F0.848
I963
I0
tp2549
sg7
F15499.731390953064
sg8
I1000
sg9
I1270
sa(dp2550
g5
(F0.48
F0.782
F0.848
I963
I0
tp2551
sg7
F15512.32872390747
sg8
I1000
sg9
I1271
sa(dp2552
g5
(F0.48
F0.787
F0.847
I962
I0
tp2553
sg7
F15524.913173913956
sg8
I1000
sg9
I1272
sa(dp2554
g5
(F0.48
F0.777
F0.851
I963
I0
tp2555
sg7
F15537.544555902481
sg8
I1000
sg9
I1273
sa(dp2556
g5
(F0.48
F0.786
F0.851
I962
I0
tp2557
sg7
F15550.13500404358
sg8
I1000
sg9
I1274
sa(dp2558
g5
(F0.48
F0.79
F0.852
I962
I0
tp2559
sg7
F15562.719907999039
sg8
I1000
sg9
I1275
sa(dp2560
g5
(F0.48
F0.781
F0.858
I961
I0
tp2561
sg7
F15575.264696836472
sg8
I1000
sg9
I1276
sa(dp2562
g5
(F0.48
F0.777
F0.86
I961
I0
tp2563
sg7
F15587.840451002121
sg8
I1000
sg9
I1277
sa(dp2564
g5
(F0.48
F0.786
F0.858
I962
I0
tp2565
sg7
F15600.417634010315
sg8
I1000
sg9
I1278
sa(dp2566
g5
(F0.48
F0.797
F0.858
I962
I0
tp2567
sg7
F15612.856549024582
sg8
I1000
sg9
I1279
sa(dp2568
g5
(F0.48
F0.791
F0.858
I961
I0
tp2569
sg7
F15625.416666030884
sg8
I1000
sg9
I1280
sa(dp2570
g5
(F0.48
F0.797
F0.858
I959
I0
tp2571
sg7
F15637.906018972397
sg8
I1000
sg9
I1281
sa(dp2572
g5
(F0.48
F0.804
F0.858
I959
I0
tp2573
sg7
F15650.404887914658
sg8
I1000
sg9
I1282
sa(dp2574
g5
(F0.48
F0.795
F0.859
I958
I0
tp2575
sg7
F15662.858583927155
sg8
I1000
sg9
I1283
sa(dp2576
g5
(F0.48
F0.801
F0.857
I957
I0
tp2577
sg7
F15675.347852945328
sg8
I1000
sg9
I1284
sa(dp2578
g5
(F0.48
F0.81
F0.856
I956
I0
tp2579
sg7
F15687.803510904312
sg8
I1000
sg9
I1285
sa(dp2580
g5
(F0.48
F0.821
F0.854
I956
I0
tp2581
sg7
F15700.173568964005
sg8
I1000
sg9
I1286
sa(dp2582
g5
(F0.48
F0.829
F0.855
I954
I0
tp2583
sg7
F15712.566336870193
sg8
I1000
sg9
I1287
sa(dp2584
g5
(F0.48
F0.828
F0.854
I954
I0
tp2585
sg7
F15725.472898960114
sg8
I1000
sg9
I1288
sa(dp2586
g5
(F0.48
F0.821
F0.855
I954
I0
tp2587
sg7
F15737.82402586937
sg8
I1000
sg9
I1289
sa(dp2588
g5
(F0.48
F0.815
F0.858
I953
I0
tp2589
sg7
F15750.201876878738
sg8
I1000
sg9
I1290
sa(dp2590
g5
(F0.48
F0.833
F0.858
I953
I0
tp2591
sg7
F15762.585954904556
sg8
I1000
sg9
I1291
sa(dp2592
g5
(F0.48
F0.828
F0.858
I954
I0
tp2593
sg7
F15775.001128911972
sg8
I1000
sg9
I1292
sa(dp2594
g5
(F0.48
F0.822
F0.855
I954
I0
tp2595
sg7
F15787.425148010254
sg8
I1000
sg9
I1293
sa(dp2596
g5
(F0.48
F0.815
F0.855
I955
I0
tp2597
sg7
F15799.790541887283
sg8
I1000
sg9
I1294
sa(dp2598
g5
(F0.48
F0.813
F0.859
I955
I0
tp2599
sg7
F15812.073071956635
sg8
I1000
sg9
I1295
sa(dp2600
g5
(F0.48
F0.812
F0.859
I955
I0
tp2601
sg7
F15824.513751983643
sg8
I1000
sg9
I1296
sa(dp2602
g5
(F0.48
F0.799
F0.859
I954
I0
tp2603
sg7
F15836.83579993248
sg8
I1000
sg9
I1297
sa(dp2604
g5
(F0.48
F0.814
F0.856
I954
I0
tp2605
sg7
F15849.188977956772
sg8
I1000
sg9
I1298
sa(dp2606
g5
(F0.48
F0.816
F0.857
I955
I0
tp2607
sg7
F15861.518137931824
sg8
I1000
sg9
I1299
sa(dp2608
g5
(F0.48
F0.824
F0.856
I956
I0
tp2609
sg7
F15873.769237995148
sg8
I1000
sg9
I1300
sa(dp2610
g5
(F0.48
F0.813
F0.86
I955
I0
tp2611
sg7
F15886.196475028992
sg8
I1000
sg9
I1301
sa(dp2612
g5
(F0.48
F0.805
F0.86
I955
I0
tp2613
sg7
F15898.580204963684
sg8
I1000
sg9
I1302
sa(dp2614
g5
(F0.48
F0.8
F0.856
I956
I0
tp2615
sg7
F15910.962651014328
sg8
I1000
sg9
I1303
sa(dp2616
g5
(F0.48
F0.81
F0.853
I956
I0
tp2617
sg7
F15923.353903055191
sg8
I1000
sg9
I1304
sa(dp2618
g5
(F0.48
F0.821
F0.851
I957
I0
tp2619
sg7
F15935.771599054337
sg8
I1000
sg9
I1305
sa(dp2620
g5
(F0.48
F0.827
F0.854
I959
I0
tp2621
sg7
F15948.164152860641
sg8
I1000
sg9
I1306
sa(dp2622
g5
(F0.48
F0.821
F0.856
I959
I0
tp2623
sg7
F15960.491962909698
sg8
I1000
sg9
I1307
sa(dp2624
g5
(F0.48
F0.826
F0.854
I960
I0
tp2625
sg7
F15972.820125818253
sg8
I1000
sg9
I1308
sa(dp2626
g5
(F0.48
F0.819
F0.85
I961
I0
tp2627
sg7
F15985.151803970337
sg8
I1000
sg9
I1309
sa(dp2628
g5
(F0.48
F0.822
F0.848
I961
I0
tp2629
sg7
F15997.504219055176
sg8
I1000
sg9
I1310
sa(dp2630
g5
(F0.48
F0.837
F0.847
I960
I0
tp2631
sg7
F16009.898104906082
sg8
I1000
sg9
I1311
sa(dp2632
g5
(F0.48
F0.84
F0.846
I960
I0
tp2633
sg7
F16022.265179872513
sg8
I1000
sg9
I1312
sa(dp2634
g5
(F0.48
F0.836
F0.848
I960
I0
tp2635
sg7
F16034.533982992172
sg8
I1000
sg9
I1313
sa(dp2636
g5
(F0.48
F0.852
F0.85
I960
I0
tp2637
sg7
F16046.969784975052
sg8
I1000
sg9
I1314
sa(dp2638
g5
(F0.48
F0.85
F0.85
I958
I0
tp2639
sg7
F16059.251260995865
sg8
I1000
sg9
I1315
sa(dp2640
g5
(F0.48
F0.849
F0.852
I958
I0
tp2641
sg7
F16071.481330871582
sg8
I1000
sg9
I1316
sa(dp2642
g5
(F0.48
F0.841
F0.851
I958
I0
tp2643
sg7
F16083.812773942947
sg8
I1000
sg9
I1317
sa(dp2644
g5
(F0.48
F0.846
F0.851
I958
I0
tp2645
sg7
F16096.082727909088
sg8
I1000
sg9
I1318
sa(dp2646
g5
(F0.48
F0.853
F0.851
I958
I0
tp2647
sg7
F16108.367280960083
sg8
I1000
sg9
I1319
sa(dp2648
g5
(F0.48
F0.859
F0.85
I956
I0
tp2649
sg7
F16120.522454023361
sg8
I1000
sg9
I1320
sa(dp2650
g5
(F0.48
F0.85
F0.849
I955
I0
tp2651
sg7
F16132.761132001877
sg8
I1000
sg9
I1321
sa(dp2652
g5
(F0.48
F0.85
F0.847
I954
I0
tp2653
sg7
F16144.882228851318
sg8
I1000
sg9
I1322
sa(dp2654
g5
(F0.48
F0.846
F0.852
I952
I0
tp2655
sg7
F16157.010076999664
sg8
I1000
sg9
I1323
sa(dp2656
g5
(F0.48
F0.832
F0.855
I952
I0
tp2657
sg7
F16169.131948947906
sg8
I1000
sg9
I1324
sa(dp2658
g5
(F0.48
F0.829
F0.855
I953
I0
tp2659
sg7
F16181.25610089302
sg8
I1000
sg9
I1325
sa(dp2660
g5
(F0.48
F0.829
F0.853
I953
I0
tp2661
sg7
F16193.474603891373
sg8
I1000
sg9
I1326
sa(dp2662
g5
(F0.48
F0.833
F0.852
I954
I0
tp2663
sg7
F16205.79661488533
sg8
I1000
sg9
I1327
sa(dp2664
g5
(F0.48
F0.816
F0.851
I953
I0
tp2665
sg7
F16217.99259185791
sg8
I1000
sg9
I1328
sa(dp2666
g5
(F0.48
F0.821
F0.853
I953
I0
tp2667
sg7
F16230.182236909866
sg8
I1000
sg9
I1329
sa(dp2668
g5
(F0.48
F0.822
F0.852
I953
I0
tp2669
sg7
F16242.33698296547
sg8
I1000
sg9
I1330
sa(dp2670
g5
(F0.48
F0.814
F0.855
I952
I0
tp2671
sg7
F16254.565611839294
sg8
I1000
sg9
I1331
sa(dp2672
g5
(F0.48
F0.827
F0.852
I952
I0
tp2673
sg7
F16266.764013051987
sg8
I1000
sg9
I1332
sa(dp2674
g5
(F0.48
F0.832
F0.852
I952
I0
tp2675
sg7
F16278.906335830688
sg8
I1000
sg9
I1333
sa(dp2676
g5
(F0.48
F0.832
F0.852
I950
I0
tp2677
sg7
F16290.99879693985
sg8
I1000
sg9
I1334
sa(dp2678
g5
(F0.48
F0.829
F0.854
I949
I0
tp2679
sg7
F16303.056054830551
sg8
I1000
sg9
I1335
sa(dp2680
g5
(F0.48
F0.839
F0.852
I948
I0
tp2681
sg7
F16315.041542053223
sg8
I1000
sg9
I1336
sa(dp2682
g5
(F0.48
F0.846
F0.857
I948
I0
tp2683
sg7
F16327.884171009064
sg8
I1000
sg9
I1337
sa(dp2684
g5
(F0.48
F0.832
F0.863
I948
I0
tp2685
sg7
F16339.871526956558
sg8
I1000
sg9
I1338
sa(dp2686
g5
(F0.48
F0.837
F0.86
I948
I0
tp2687
sg7
F16351.920977830887
sg8
I1000
sg9
I1339
sa(dp2688
g5
(F0.48
F0.822
F0.86
I948
I0
tp2689
sg7
F16363.988855838776
sg8
I1000
sg9
I1340
sa(dp2690
g5
(F0.48
F0.814
F0.864
I947
I0
tp2691
sg7
F16376.112344026566
sg8
I1000
sg9
I1341
sa(dp2692
g5
(F0.48
F0.834
F0.86
I946
I0
tp2693
sg7
F16388.171298980713
sg8
I1000
sg9
I1342
sa(dp2694
g5
(F0.48
F0.831
F0.859
I946
I0
tp2695
sg7
F16400.34659385681
sg8
I1000
sg9
I1343
sa(dp2696
g5
(F0.48
F0.839
F0.86
I946
I0
tp2697
sg7
F16412.387094020844
sg8
I1000
sg9
I1344
sa(dp2698
g5
(F0.48
F0.838
F0.865
I949
I0
tp2699
sg7
F16424.379537820816
sg8
I1000
sg9
I1345
sa(dp2700
g5
(F0.48
F0.838
F0.864
I949
I0
tp2701
sg7
F16436.531630039215
sg8
I1000
sg9
I1346
sa(dp2702
g5
(F0.48
F0.837
F0.867
I949
I0
tp2703
sg7
F16448.65296792984
sg8
I1000
sg9
I1347
sa(dp2704
g5
(F0.48
F0.851
F0.866
I949
I0
tp2705
sg7
F16460.7586479187
sg8
I1000
sg9
I1348
sa(dp2706
g5
(F0.48
F0.852
F0.865
I949
I0
tp2707
sg7
F16472.833266973495
sg8
I1000
sg9
I1349
sa(dp2708
g5
(F0.48
F0.842
F0.865
I949
I0
tp2709
sg7
F16485.00394487381
sg8
I1000
sg9
I1350
sa(dp2710
g5
(F0.48
F0.837
F0.864
I949
I0
tp2711
sg7
F16497.083734035492
sg8
I1000
sg9
I1351
sa(dp2712
g5
(F0.48
F0.83
F0.863
I950
I0
tp2713
sg7
F16509.168799877167
sg8
I1000
sg9
I1352
sa(dp2714
g5
(F0.48
F0.822
F0.864
I950
I0
tp2715
sg7
F16521.468184947968
sg8
I1000
sg9
I1353
sa(dp2716
g5
(F0.48
F0.813
F0.86
I952
I0
tp2717
sg7
F16533.690945863724
sg8
I1000
sg9
I1354
sa(dp2718
g5
(F0.48
F0.833
F0.861
I951
I0
tp2719
sg7
F16545.985116004944
sg8
I1000
sg9
I1355
sa(dp2720
g5
(F0.48
F0.837
F0.864
I951
I0
tp2721
sg7
F16558.231621980667
sg8
I1000
sg9
I1356
sa(dp2722
g5
(F0.48
F0.852
F0.862
I950
I0
tp2723
sg7
F16570.477069854736
sg8
I1000
sg9
I1357
sa(dp2724
g5
(F0.48
F0.837
F0.863
I949
I0
tp2725
sg7
F16582.655005931854
sg8
I1000
sg9
I1358
sa(dp2726
g5
(F0.48
F0.834
F0.865
I951
I0
tp2727
sg7
F16594.861492872238
sg8
I1000
sg9
I1359
sa(dp2728
g5
(F0.48
F0.842
F0.864
I951
I0
tp2729
sg7
F16607.104547023773
sg8
I1000
sg9
I1360
sa(dp2730
g5
(F0.48
F0.837
F0.866
I951
I0
tp2731
sg7
F16619.292423963547
sg8
I1000
sg9
I1361
sa(dp2732
g5
(F0.48
F0.84
F0.866
I949
I0
tp2733
sg7
F16631.369406938553
sg8
I1000
sg9
I1362
sa(dp2734
g5
(F0.48
F0.836
F0.867
I950
I0
tp2735
sg7
F16643.41259789467
sg8
I1000
sg9
I1363
sa(dp2736
g5
(F0.48
F0.836
F0.866
I952
I0
tp2737
sg7
F16655.638063907623
sg8
I1000
sg9
I1364
sa(dp2738
g5
(F0.48
F0.842
F0.865
I952
I0
tp2739
sg7
F16667.789206027985
sg8
I1000
sg9
I1365
sa(dp2740
g5
(F0.48
F0.846
F0.864
I952
I0
tp2741
sg7
F16679.928661823273
sg8
I1000
sg9
I1366
sa(dp2742
g5
(F0.48
F0.845
F0.866
I950
I0
tp2743
sg7
F16691.997023820877
sg8
I1000
sg9
I1367
sa(dp2744
g5
(F0.48
F0.827
F0.864
I950
I0
tp2745
sg7
F16704.02828001976
sg8
I1000
sg9
I1368
sa(dp2746
g5
(F0.48
F0.835
F0.865
I950
I0
tp2747
sg7
F16716.179760932922
sg8
I1000
sg9
I1369
sa(dp2748
g5
(F0.48
F0.833
F0.864
I950
I0
tp2749
sg7
F16728.24854493141
sg8
I1000
sg9
I1370
sa(dp2750
g5
(F0.48
F0.842
F0.864
I951
I0
tp2751
sg7
F16740.20986390114
sg8
I1000
sg9
I1371
sa(dp2752
g5
(F0.48
F0.847
F0.862
I951
I0
tp2753
sg7
F16752.25054693222
sg8
I1000
sg9
I1372
sa(dp2754
g5
(F0.48
F0.859
F0.86
I951
I0
tp2755
sg7
F16764.280714035034
sg8
I1000
sg9
I1373
sa(dp2756
g5
(F0.48
F0.85
F0.862
I952
I0
tp2757
sg7
F16776.30536198616
sg8
I1000
sg9
I1374
sa(dp2758
g5
(F0.48
F0.847
F0.866
I952
I0
tp2759
sg7
F16788.479418039322
sg8
I1000
sg9
I1375
sa(dp2760
g5
(F0.48
F0.846
F0.861
I952
I0
tp2761
sg7
F16800.638120889664
sg8
I1000
sg9
I1376
sa(dp2762
g5
(F0.48
F0.852
F0.857
I952
I0
tp2763
sg7
F16812.81649494171
sg8
I1000
sg9
I1377
sa(dp2764
g5
(F0.48
F0.855
F0.859
I952
I0
tp2765
sg7
F16824.99382996559
sg8
I1000
sg9
I1378
sa(dp2766
g5
(F0.48
F0.852
F0.857
I952
I0
tp2767
sg7
F16837.11487197876
sg8
I1000
sg9
I1379
sa(dp2768
g5
(F0.48
F0.856
F0.859
I952
I0
tp2769
sg7
F16849.277415037155
sg8
I1000
sg9
I1380
sa(dp2770
g5
(F0.48
F0.848
F0.859
I952
I0
tp2771
sg7
F16861.369686841965
sg8
I1000
sg9
I1381
sa(dp2772
g5
(F0.48
F0.85
F0.859
I951
I0
tp2773
sg7
F16873.532258987427
sg8
I1000
sg9
I1382
sa(dp2774
g5
(F0.48
F0.857
F0.856
I951
I0
tp2775
sg7
F16885.71054792404
sg8
I1000
sg9
I1383
sa(dp2776
g5
(F0.48
F0.854
F0.858
I952
I0
tp2777
sg7
F16897.832242012024
sg8
I1000
sg9
I1384
sa(dp2778
g5
(F0.48
F0.871
F0.858
I951
I0
tp2779
sg7
F16909.769214868546
sg8
I1000
sg9
I1385
sa(dp2780
g5
(F0.48
F0.868
F0.86
I951
I0
tp2781
sg7
F16921.83743405342
sg8
I1000
sg9
I1386
sa(dp2782
g5
(F0.48
F0.853
F0.861
I952
I0
tp2783
sg7
F16934.680974960327
sg8
I1000
sg9
I1387
sa(dp2784
g5
(F0.48
F0.856
F0.858
I952
I0
tp2785
sg7
F16946.818264961243
sg8
I1000
sg9
I1388
sa(dp2786
g5
(F0.48
F0.868
F0.858
I952
I0
tp2787
sg7
F16958.88421201706
sg8
I1000
sg9
I1389
sa(dp2788
g5
(F0.48
F0.862
F0.854
I952
I0
tp2789
sg7
F16970.973618984222
sg8
I1000
sg9
I1390
sa(dp2790
g5
(F0.48
F0.853
F0.856
I952
I0
tp2791
sg7
F16982.997081041336
sg8
I1000
sg9
I1391
sa(dp2792
g5
(F0.48
F0.853
F0.857
I951
I0
tp2793
sg7
F16995.06152486801
sg8
I1000
sg9
I1392
sa(dp2794
g5
(F0.48
F0.868
F0.859
I951
I0
tp2795
sg7
F17007.020952939987
sg8
I1000
sg9
I1393
sa(dp2796
g5
(F0.48
F0.852
F0.856
I950
I0
tp2797
sg7
F17019.09734582901
sg8
I1000
sg9
I1394
sa(dp2798
g5
(F0.48
F0.845
F0.859
I950
I0
tp2799
sg7
F17031.218832969666
sg8
I1000
sg9
I1395
sa(dp2800
g5
(F0.48
F0.846
F0.857
I951
I0
tp2801
sg7
F17043.25550699234
sg8
I1000
sg9
I1396
sa(dp2802
g5
(F0.48
F0.849
F0.858
I949
I0
tp2803
sg7
F17055.36324596405
sg8
I1000
sg9
I1397
sa(dp2804
g5
(F0.48
F0.846
F0.856
I951
I0
tp2805
sg7
F17067.532441854477
sg8
I1000
sg9
I1398
sa(dp2806
g5
(F0.48
F0.822
F0.857
I951
I0
tp2807
sg7
F17079.59911799431
sg8
I1000
sg9
I1399
sa(dp2808
g5
(F0.48
F0.82
F0.86
I951
I0
tp2809
sg7
F17091.907663822174
sg8
I1000
sg9
I1400
sa(dp2810
g5
(F0.48
F0.815
F0.862
I951
I0
tp2811
sg7
F17104.11554789543
sg8
I1000
sg9
I1401
sa(dp2812
g5
(F0.48
F0.817
F0.863
I951
I0
tp2813
sg7
F17116.220108032227
sg8
I1000
sg9
I1402
sa(dp2814
g5
(F0.48
F0.823
F0.865
I951
I0
tp2815
sg7
F17128.470883846283
sg8
I1000
sg9
I1403
sa(dp2816
g5
(F0.48
F0.823
F0.866
I951
I0
tp2817
sg7
F17140.59390592575
sg8
I1000
sg9
I1404
sa(dp2818
g5
(F0.48
F0.833
F0.864
I951
I0
tp2819
sg7
F17152.85447883606
sg8
I1000
sg9
I1405
sa(dp2820
g5
(F0.48
F0.843
F0.864
I952
I0
tp2821
sg7
F17164.975950956345
sg8
I1000
sg9
I1406
sa(dp2822
g5
(F0.48
F0.847
F0.864
I952
I0
tp2823
sg7
F17177.1470618248
sg8
I1000
sg9
I1407
sa(dp2824
g5
(F0.48
F0.828
F0.866
I952
I0
tp2825
sg7
F17189.36211490631
sg8
I1000
sg9
I1408
sa(dp2826
g5
(F0.48
F0.83
F0.868
I952
I0
tp2827
sg7
F17201.65297985077
sg8
I1000
sg9
I1409
sa(dp2828
g5
(F0.48
F0.826
F0.866
I952
I0
tp2829
sg7
F17213.93070793152
sg8
I1000
sg9
I1410
sa(dp2830
g5
(F0.48
F0.83
F0.869
I951
I0
tp2831
sg7
F17226.210656881332
sg8
I1000
sg9
I1411
sa(dp2832
g5
(F0.48
F0.828
F0.868
I952
I0
tp2833
sg7
F17238.47925400734
sg8
I1000
sg9
I1412
sa(dp2834
g5
(F0.48
F0.839
F0.87
I954
I0
tp2835
sg7
F17250.812504053116
sg8
I1000
sg9
I1413
sa(dp2836
g5
(F0.48
F0.837
F0.868
I954
I0
tp2837
sg7
F17263.09181690216
sg8
I1000
sg9
I1414
sa(dp2838
g5
(F0.48
F0.849
F0.87
I954
I0
tp2839
sg7
F17275.362128019333
sg8
I1000
sg9
I1415
sa(dp2840
g5
(F0.48
F0.854
F0.87
I954
I0
tp2841
sg7
F17287.613134860992
sg8
I1000
sg9
I1416
sa(dp2842
g5
(F0.48
F0.857
F0.869
I953
I0
tp2843
sg7
F17299.805711984634
sg8
I1000
sg9
I1417
sa(dp2844
g5
(F0.48
F0.861
F0.869
I953
I0
tp2845
sg7
F17312.046396017075
sg8
I1000
sg9
I1418
sa(dp2846
g5
(F0.48
F0.855
F0.866
I953
I0
tp2847
sg7
F17324.18825984001
sg8
I1000
sg9
I1419
sa(dp2848
g5
(F0.48
F0.852
F0.868
I954
I0
tp2849
sg7
F17336.36758494377
sg8
I1000
sg9
I1420
sa(dp2850
g5
(F0.48
F0.856
F0.867
I953
I0
tp2851
sg7
F17348.605299949646
sg8
I1000
sg9
I1421
sa(dp2852
g5
(F0.48
F0.855
F0.867
I953
I0
tp2853
sg7
F17360.811408996582
sg8
I1000
sg9
I1422
sa(dp2854
g5
(F0.48
F0.861
F0.866
I953
I0
tp2855
sg7
F17372.94805598259
sg8
I1000
sg9
I1423
sa(dp2856
g5
(F0.48
F0.862
F0.868
I953
I0
tp2857
sg7
F17384.99832701683
sg8
I1000
sg9
I1424
sa(dp2858
g5
(F0.48
F0.861
F0.868
I952
I0
tp2859
sg7
F17397.120115995407
sg8
I1000
sg9
I1425
sa(dp2860
g5
(F0.48
F0.868
F0.866
I952
I0
tp2861
sg7
F17409.10846400261
sg8
I1000
sg9
I1426
sa(dp2862
g5
(F0.48
F0.84
F0.858
I953
I0
tp2863
sg7
F17421.29359793663
sg8
I1000
sg9
I1427
sa(dp2864
g5
(F0.48
F0.844
F0.851
I953
I0
tp2865
sg7
F17433.549602031708
sg8
I1000
sg9
I1428
sa(dp2866
g5
(F0.48
F0.832
F0.855
I952
I0
tp2867
sg7
F17445.84895682335
sg8
I1000
sg9
I1429
sa(dp2868
g5
(F0.48
F0.827
F0.854
I953
I0
tp2869
sg7
F17458.086626052856
sg8
I1000
sg9
I1430
sa(dp2870
g5
(F0.48
F0.827
F0.86
I953
I0
tp2871
sg7
F17470.384261846542
sg8
I1000
sg9
I1431
sa(dp2872
g5
(F0.48
F0.819
F0.859
I952
I0
tp2873
sg7
F17482.76566195488
sg8
I1000
sg9
I1432
sa(dp2874
g5
(F0.48
F0.818
F0.859
I951
I0
tp2875
sg7
F17495.09099984169
sg8
I1000
sg9
I1433
sa(dp2876
g5
(F0.48
F0.828
F0.855
I951
I0
tp2877
sg7
F17507.282922029495
sg8
I1000
sg9
I1434
sa(dp2878
g5
(F0.48
F0.83
F0.852
I950
I0
tp2879
sg7
F17519.59463787079
sg8
I1000
sg9
I1435
sa(dp2880
g5
(F0.48
F0.834
F0.853
I950
I0
tp2881
sg7
F17531.752526044846
sg8
I1000
sg9
I1436
satp2882
Rp2883
(dp2884
S'log_header'
p2885
I01
sS'header'
p2886
(S'gen'
p2887
S'evals'
p2888
S'hv|spread|igd|frontier#|valid#'
p2889
S'timestamp'
p2890
tp2891
sS'columns_len'
p2892
(lp2893
I4
aI5
aI30
aI9
asS'buffindex'
p2894
I1437
sS'chapters'
p2895
ccollections
defaultdict
p2896
(g1
tp2897
Rp2898
sb.