ccopy_reg
_reconstructor
p0
(cdeap.tools.support
Logbook
p1
c__builtin__
list
p2
(lp3
(dp4
S'hv|spread|igd|frontier#|valid#'
p5
(F0.403
F0.566
F0.337
I46
I9
tp6
sS'timestamp'
p7
F1.437621831893921
sS'evals'
p8
I1000
sS'gen'
p9
I0
sa(dp10
g5
(F0.417
F0.582
F0.264
I62
I26
tp11
sg7
F15.005759000778198
sg8
I1000
sg9
I1
sa(dp12
g5
(F0.402
F0.643
F0.218
I60
I27
tp13
sg7
F20.51024580001831
sg8
I1000
sg9
I2
sa(dp14
g5
(F0.397
F0.634
F0.181
I55
I27
tp15
sg7
F162.36891889572144
sg8
I1000
sg9
I3
sa(dp16
g5
(F0.405
F0.651
F0.206
I58
I27
tp17
sg7
F297.8231008052826
sg8
I1000
sg9
I4
sa(dp18
g5
(F0.392
F0.714
F0.201
I58
I27
tp19
sg7
F422.9735858440399
sg8
I1000
sg9
I5
sa(dp20
g5
(F0.412
F0.582
F0.222
I60
I27
tp21
sg7
F562.1308209896088
sg8
I1000
sg9
I6
sa(dp22
g5
(F0.41
F0.629
F0.229
I61
I27
tp23
sg7
F691.8878509998322
sg8
I1000
sg9
I7
sa(dp24
g5
(F0.394
F0.678
F0.194
I57
I27
tp25
sg7
F826.9764909744263
sg8
I1000
sg9
I8
sa(dp26
g5
(F0.387
F0.715
F0.174
I54
I27
tp27
sg7
F959.7873718738556
sg8
I1000
sg9
I9
sa(dp28
g5
(F0.409
F0.639
F0.227
I61
I28
tp29
sg7
F1094.824982881546
sg8
I1000
sg9
I10
sa(dp30
g5
(F0.413
F0.656
F0.223
I60
I27
tp31
sg7
F1241.020823955536
sg8
I1000
sg9
I11
sa(dp32
g5
(F0.411
F0.652
F0.225
I60
I28
tp33
sg7
F1386.2886798381805
sg8
I1000
sg9
I12
sa(dp34
g5
(F0.41
F0.676
F0.235
I61
I27
tp35
sg7
F1518.8417468070984
sg8
I1000
sg9
I13
sa(dp36
g5
(F0.392
F0.686
F0.187
I55
I27
tp37
sg7
F1655.0695819854736
sg8
I1000
sg9
I14
sa(dp38
g5
(F0.384
F0.694
F0.199
I57
I27
tp39
sg7
F1787.609992980957
sg8
I1000
sg9
I15
sa(dp40
g5
(F0.402
F0.651
F0.233
I61
I27
tp41
sg7
F1938.309728860855
sg8
I1000
sg9
I16
sa(dp42
g5
(F0.406
F0.689
F0.225
I60
I27
tp43
sg7
F2074.5489609241486
sg8
I1000
sg9
I17
sa(dp44
g5
(F0.415
F0.625
F0.231
I61
I27
tp45
sg7
F2202.212077856064
sg8
I1000
sg9
I18
sa(dp46
g5
(F0.392
F0.622
F0.196
I56
I27
tp47
sg7
F2341.963361978531
sg8
I1000
sg9
I19
sa(dp48
g5
(F0.415
F0.659
F0.24
I62
I27
tp49
sg7
F2465.7760198116302
sg8
I1000
sg9
I20
sa(dp50
g5
(F0.405
F0.665
F0.216
I59
I27
tp51
sg7
F2600.778337955475
sg8
I1000
sg9
I21
sa(dp52
g5
(F0.403
F0.667
F0.197
I56
I27
tp53
sg7
F2748.1911878585815
sg8
I1000
sg9
I22
sa(dp54
g5
(F0.406
F0.727
F0.219
I60
I27
tp55
sg7
F2889.8043959140778
sg8
I1000
sg9
I23
sa(dp56
g5
(F0.408
F0.644
F0.247
I64
I28
tp57
sg7
F3037.878348827362
sg8
I1000
sg9
I24
sa(dp58
g5
(F0.394
F0.666
F0.203
I58
I27
tp59
sg7
F3188.303097963333
sg8
I1000
sg9
I25
sa(dp60
g5
(F0.409
F0.624
F0.229
I61
I27
tp61
sg7
F3318.8738379478455
sg8
I1000
sg9
I26
sa(dp62
g5
(F0.394
F0.638
F0.196
I57
I27
tp63
sg7
F3462.797096967697
sg8
I1000
sg9
I27
sa(dp64
g5
(F0.401
F0.684
F0.21
I59
I27
tp65
sg7
F3607.0817289352417
sg8
I1000
sg9
I28
sa(dp66
g5
(F0.401
F0.633
F0.225
I61
I27
tp67
sg7
F3752.505190849304
sg8
I1000
sg9
I29
sa(dp68
g5
(F0.383
F0.674
F0.177
I54
I27
tp69
sg7
F3891.2743368148804
sg8
I1000
sg9
I30
sa(dp70
g5
(F0.41
F0.658
F0.225
I60
I27
tp71
sg7
F4044.597124814987
sg8
I1000
sg9
I31
sa(dp72
g5
(F0.415
F0.612
F0.24
I62
I27
tp73
sg7
F4169.458629846573
sg8
I1000
sg9
I32
sa(dp74
g5
(F0.404
F0.716
F0.207
I58
I27
tp75
sg7
F4306.068832874298
sg8
I1000
sg9
I33
sa(dp76
g5
(F0.408
F0.606
F0.217
I59
I27
tp77
sg7
F4458.319930791855
sg8
I1000
sg9
I34
sa(dp78
g5
(F0.406
F0.665
F0.206
I58
I27
tp79
sg7
F4591.175924777985
sg8
I1000
sg9
I35
sa(dp80
g5
(F0.405
F0.664
F0.226
I60
I27
tp81
sg7
F4721.2991189956665
sg8
I1000
sg9
I36
sa(dp82
g5
(F0.392
F0.706
F0.196
I57
I27
tp83
sg7
F4853.579501867294
sg8
I1000
sg9
I37
sa(dp84
g5
(F0.407
F0.66
F0.212
I58
I27
tp85
sg7
F4982.5447878837585
sg8
I1000
sg9
I38
sa(dp86
g5
(F0.408
F0.687
F0.231
I61
I27
tp87
sg7
F5117.992270946503
sg8
I1000
sg9
I39
sa(dp88
g5
(F0.408
F0.626
F0.234
I62
I28
tp89
sg7
F5264.144622802734
sg8
I1000
sg9
I40
sa(dp90
g5
(F0.414
F0.661
F0.225
I60
I27
tp91
sg7
F5404.172692775726
sg8
I1000
sg9
I41
sa(dp92
g5
(F0.419
F0.685
F0.259
I65
I27
tp93
sg7
F5544.78170800209
sg8
I1000
sg9
I42
sa(dp94
g5
(F0.412
F0.613
F0.223
I59
I27
tp95
sg7
F5673.492905855179
sg8
I1000
sg9
I43
sa(dp96
g5
(F0.384
F0.663
F0.185
I55
I27
tp97
sg7
F5807.144411802292
sg8
I1000
sg9
I44
sa(dp98
g5
(F0.404
F0.626
F0.213
I58
I27
tp99
sg7
F5922.503572940826
sg8
I1000
sg9
I45
sa(dp100
g5
(F0.394
F0.633
F0.224
I60
I27
tp101
sg7
F6055.4081399440765
sg8
I1000
sg9
I46
sa(dp102
g5
(F0.405
F0.632
F0.201
I57
I27
tp103
sg7
F6188.713771820068
sg8
I1000
sg9
I47
sa(dp104
g5
(F0.404
F0.639
F0.203
I57
I27
tp105
sg7
F6328.528644800186
sg8
I1000
sg9
I48
sa(dp106
g5
(F0.401
F0.704
F0.196
I57
I27
tp107
sg7
F6468.601600885391
sg8
I1000
sg9
I49
sa(dp108
g5
(F0.408
F0.675
F0.213
I59
I27
tp109
sg7
F6609.876056909561
sg8
I1000
sg9
I50
sa(dp110
g5
(F0.404
F0.706
F0.207
I58
I27
tp111
sg7
F6748.995429992676
sg8
I1000
sg9
I51
sa(dp112
g5
(F0.414
F0.655
F0.207
I57
I27
tp113
sg7
F6878.168009996414
sg8
I1000
sg9
I52
sa(dp114
g5
(F0.405
F0.728
F0.224
I61
I28
tp115
sg7
F7019.307007789612
sg8
I1000
sg9
I53
sa(dp116
g5
(F0.393
F0.564
F0.195
I57
I27
tp117
sg7
F7148.658363819122
sg8
I1000
sg9
I54
sa(dp118
g5
(F0.406
F0.584
F0.21
I58
I27
tp119
sg7
F7280.973200798035
sg8
I1000
sg9
I55
sa(dp120
g5
(F0.405
F0.584
F0.203
I57
I27
tp121
sg7
F7408.468882799149
sg8
I1000
sg9
I56
sa(dp122
g5
(F0.401
F0.647
F0.207
I58
I28
tp123
sg7
F7543.924877882004
sg8
I1000
sg9
I57
sa(dp124
g5
(F0.405
F0.574
F0.219
I60
I27
tp125
sg7
F7670.619663000107
sg8
I1000
sg9
I58
sa(dp126
g5
(F0.416
F0.637
F0.235
I60
I27
tp127
sg7
F7812.001231908798
sg8
I1000
sg9
I59
sa(dp128
g5
(F0.403
F0.672
F0.22
I60
I28
tp129
sg7
F7957.250057935715
sg8
I1000
sg9
I60
sa(dp130
g5
(F0.403
F0.64
F0.205
I58
I27
tp131
sg7
F8097.930798768997
sg8
I1000
sg9
I61
sa(dp132
g5
(F0.407
F0.629
F0.234
I62
I28
tp133
sg7
F8235.71975183487
sg8
I1000
sg9
I62
sa(dp134
g5
(F0.404
F0.657
F0.22
I59
I27
tp135
sg7
F8375.319827795029
sg8
I1000
sg9
I63
sa(dp136
g5
(F0.408
F0.644
F0.226
I60
I27
tp137
sg7
F8521.61209988594
sg8
I1000
sg9
I64
sa(dp138
g5
(F0.401
F0.64
F0.203
I58
I27
tp139
sg7
F8646.08623290062
sg8
I1000
sg9
I65
sa(dp140
g5
(F0.409
F0.589
F0.222
I59
I27
tp141
sg7
F8771.410831928253
sg8
I1000
sg9
I66
sa(dp142
g5
(F0.396
F0.683
F0.218
I60
I28
tp143
sg7
F8901.785429954529
sg8
I1000
sg9
I67
sa(dp144
g5
(F0.408
F0.602
F0.238
I61
I27
tp145
sg7
F9037.394472837448
sg8
I1000
sg9
I68
sa(dp146
g5
(F0.39
F0.626
F0.201
I57
I27
tp147
sg7
F9172.562653779984
sg8
I1000
sg9
I69
sa(dp148
g5
(F0.406
F0.651
F0.228
I60
I27
tp149
sg7
F9311.268098831177
sg8
I1000
sg9
I70
sa(dp150
g5
(F0.41
F0.667
F0.227
I59
I27
tp151
sg7
F9444.425615787506
sg8
I1000
sg9
I71
sa(dp152
g5
(F0.405
F0.679
F0.211
I59
I28
tp153
sg7
F9575.320699930191
sg8
I1000
sg9
I72
sa(dp154
g5
(F0.405
F0.658
F0.23
I61
I27
tp155
sg7
F9719.274465799332
sg8
I1000
sg9
I73
sa(dp156
g5
(F0.394
F0.639
F0.194
I56
I28
tp157
sg7
F9859.760063886642
sg8
I1000
sg9
I74
sa(dp158
g5
(F0.407
F0.714
F0.21
I58
I27
tp159
sg7
F9995.712178945541
sg8
I1000
sg9
I75
sa(dp160
g5
(F0.406
F0.673
F0.229
I61
I28
tp161
sg7
F10122.479581832886
sg8
I1000
sg9
I76
sa(dp162
g5
(F0.41
F0.665
F0.23
I60
I27
tp163
sg7
F10263.510000944138
sg8
I1000
sg9
I77
satp164
Rp165
(dp166
S'log_header'
p167
I01
sS'header'
p168
(S'gen'
p169
S'evals'
p170
S'hv|spread|igd|frontier#|valid#'
p171
S'timestamp'
p172
tp173
sS'columns_len'
p174
(lp175
I3
aI5
aI30
aI9
asS'buffindex'
p176
I78
sS'chapters'
p177
ccollections
defaultdict
p178
(g1
tp179
Rp180
sb.