ccopy_reg
_reconstructor
p0
(cdeap.tools.support
Logbook
p1
c__builtin__
list
p2
(lp3
(dp4
S'hv|spread|igd|frontier#|valid#'
p5
(F0.236
F0.476
F0.837
I148
I0
tp6
sS'timestamp'
p7
F3.4137890338897705
sS'evals'
p8
I1000
sS'gen'
p9
I0
sa(dp10
g5
(F0.244
F0.409
F0.773
I181
I0
tp11
sg7
F9.630033016204834
sg8
I1000
sg9
I1
sa(dp12
g5
(F0.252
F0.377
F0.735
I233
I0
tp13
sg7
F17.938838958740234
sg8
I1000
sg9
I2
sa(dp14
g5
(F0.255
F0.439
F0.692
I275
I0
tp15
sg7
F29.371116876602173
sg8
I1000
sg9
I3
sa(dp16
g5
(F0.271
F0.428
F0.667
I284
I0
tp17
sg7
F43.974124908447266
sg8
I1000
sg9
I4
sa(dp18
g5
(F0.274
F0.445
F0.637
I309
I0
tp19
sg7
F59.36127805709839
sg8
I1000
sg9
I5
sa(dp20
g5
(F0.28
F0.438
F0.627
I299
I0
tp21
sg7
F77.6112928390503
sg8
I1000
sg9
I6
sa(dp22
g5
(F0.281
F0.447
F0.623
I351
I0
tp23
sg7
F95.99271488189697
sg8
I1000
sg9
I7
sa(dp24
g5
(F0.279
F0.46
F0.601
I374
I0
tp25
sg7
F119.445965051651
sg8
I1000
sg9
I8
sa(dp26
g5
(F0.282
F0.467
F0.627
I379
I0
tp27
sg7
F145.88721084594727
sg8
I1000
sg9
I9
sa(dp28
g5
(F0.29
F0.423
F0.618
I387
I0
tp29
sg7
F175.22588801383972
sg8
I1000
sg9
I10
sa(dp30
g5
(F0.292
F0.455
F0.607
I409
I0
tp31
sg7
F204.62376403808594
sg8
I1000
sg9
I11
sa(dp32
g5
(F0.289
F0.406
F0.597
I401
I0
tp33
sg7
F238.55863189697266
sg8
I1000
sg9
I12
sa(dp34
g5
(F0.287
F0.442
F0.597
I392
I0
tp35
sg7
F273.4685640335083
sg8
I1000
sg9
I13
sa(dp36
g5
(F0.287
F0.451
F0.606
I414
I0
tp37
sg7
F301.98199105262756
sg8
I1000
sg9
I14
sa(dp38
g5
(F0.289
F0.446
F0.596
I408
I0
tp39
sg7
F334.68491888046265
sg8
I1000
sg9
I15
sa(dp40
g5
(F0.289
F0.462
F0.601
I419
I0
tp41
sg7
F371.01932287216187
sg8
I1000
sg9
I16
sa(dp42
g5
(F0.302
F0.425
F0.582
I427
I0
tp43
sg7
F405.72883105278015
sg8
I1000
sg9
I17
sa(dp44
g5
(F0.298
F0.442
F0.57
I413
I0
tp45
sg7
F444.5002808570862
sg8
I1000
sg9
I18
sa(dp46
g5
(F0.308
F0.433
F0.581
I396
I0
tp47
sg7
F479.0972409248352
sg8
I1000
sg9
I19
sa(dp48
g5
(F0.3
F0.428
F0.566
I405
I0
tp49
sg7
F508.8141598701477
sg8
I1000
sg9
I20
sa(dp50
g5
(F0.307
F0.414
F0.562
I437
I0
tp51
sg7
F542.7231140136719
sg8
I1000
sg9
I21
sa(dp52
g5
(F0.307
F0.434
F0.545
I411
I0
tp53
sg7
F580.8793940544128
sg8
I1000
sg9
I22
sa(dp54
g5
(F0.302
F0.427
F0.566
I426
I0
tp55
sg7
F615.8046078681946
sg8
I1000
sg9
I23
sa(dp56
g5
(F0.299
F0.432
F0.519
I407
I0
tp57
sg7
F653.6635799407959
sg8
I1000
sg9
I24
sa(dp58
g5
(F0.293
F0.413
F0.537
I414
I0
tp59
sg7
F686.9871790409088
sg8
I1000
sg9
I25
sa(dp60
g5
(F0.301
F0.412
F0.537
I422
I0
tp61
sg7
F724.475359916687
sg8
I1000
sg9
I26
sa(dp62
g5
(F0.291
F0.445
F0.533
I427
I0
tp63
sg7
F763.2069659233093
sg8
I1000
sg9
I27
sa(dp64
g5
(F0.287
F0.409
F0.53
I432
I0
tp65
sg7
F800.2263689041138
sg8
I1000
sg9
I28
sa(dp66
g5
(F0.309
F0.411
F0.542
I451
I0
tp67
sg7
F841.365021944046
sg8
I1000
sg9
I29
sa(dp68
g5
(F0.294
F0.446
F0.54
I449
I0
tp69
sg7
F884.9239630699158
sg8
I1000
sg9
I30
sa(dp70
g5
(F0.3
F0.413
F0.536
I471
I0
tp71
sg7
F927.5777099132538
sg8
I1000
sg9
I31
sa(dp72
g5
(F0.302
F0.446
F0.536
I465
I0
tp73
sg7
F978.2796609401703
sg8
I1000
sg9
I32
sa(dp74
g5
(F0.276
F0.422
F0.532
I438
I1
tp75
sg7
F1025.875638961792
sg8
I1000
sg9
I33
sa(dp76
g5
(F0.285
F0.408
F0.526
I429
I1
tp77
sg7
F1067.004781961441
sg8
I1000
sg9
I34
sa(dp78
g5
(F0.306
F0.422
F0.555
I461
I1
tp79
sg7
F1108.4110019207
sg8
I1000
sg9
I35
sa(dp80
g5
(F0.292
F0.435
F0.543
I466
I2
tp81
sg7
F1153.413323879242
sg8
I1000
sg9
I36
sa(dp82
g5
(F0.292
F0.414
F0.55
I441
I2
tp83
sg7
F1202.2313690185547
sg8
I1000
sg9
I37
sa(dp84
g5
(F0.303
F0.434
F0.567
I415
I0
tp85
sg7
F1244.094085931778
sg8
I1000
sg9
I38
sa(dp86
g5
(F0.296
F0.423
F0.551
I443
I0
tp87
sg7
F1282.6444828510284
sg8
I1000
sg9
I39
sa(dp88
g5
(F0.302
F0.42
F0.573
I442
I0
tp89
sg7
F1325.7611620426178
sg8
I1000
sg9
I40
sa(dp90
g5
(F0.329
F0.442
F0.557
I397
I0
tp91
sg7
F1368.2210268974304
sg8
I1000
sg9
I41
sa(dp92
g5
(F0.303
F0.415
F0.536
I428
I0
tp93
sg7
F1401.3698160648346
sg8
I1000
sg9
I42
sa(dp94
g5
(F0.304
F0.446
F0.548
I427
I0
tp95
sg7
F1441.9671189785004
sg8
I1000
sg9
I43
sa(dp96
g5
(F0.311
F0.436
F0.543
I446
I0
tp97
sg7
F1481.0352079868317
sg8
I1000
sg9
I44
sa(dp98
g5
(F0.303
F0.437
F0.527
I429
I0
tp99
sg7
F1526.2946999073029
sg8
I1000
sg9
I45
sa(dp100
g5
(F0.3
F0.431
F0.544
I424
I0
tp101
sg7
F1566.0964200496674
sg8
I1000
sg9
I46
sa(dp102
g5
(F0.31
F0.435
F0.544
I450
I0
tp103
sg7
F1604.5206980705261
sg8
I1000
sg9
I47
sa(dp104
g5
(F0.302
F0.419
F0.54
I377
I0
tp105
sg7
F1647.0734748840332
sg8
I1000
sg9
I48
sa(dp106
g5
(F0.296
F0.444
F0.551
I450
I0
tp107
sg7
F1677.9631049633026
sg8
I1000
sg9
I49
sa(dp108
g5
(F0.297
F0.44
F0.54
I459
I0
tp109
sg7
F1723.4623670578003
sg8
I1000
sg9
I50
sa(dp110
g5
(F0.296
F0.468
F0.527
I409
I0
tp111
sg7
F1768.9479179382324
sg8
I1000
sg9
I51
sa(dp112
g5
(F0.295
F0.457
F0.51
I417
I0
tp113
sg7
F1803.9314968585968
sg8
I1000
sg9
I52
sa(dp114
g5
(F0.308
F0.391
F0.534
I447
I0
tp115
sg7
F1843.1889460086823
sg8
I1000
sg9
I53
sa(dp116
g5
(F0.309
F0.431
F0.519
I441
I0
tp117
sg7
F1885.7621529102325
sg8
I1000
sg9
I54
sa(dp118
g5
(F0.311
F0.426
F0.535
I448
I0
tp119
sg7
F1929.5564749240875
sg8
I1000
sg9
I55
sa(dp120
g5
(F0.315
F0.437
F0.549
I450
I2
tp121
sg7
F1974.3884649276733
sg8
I1000
sg9
I56
sa(dp122
g5
(F0.297
F0.448
F0.522
I430
I3
tp123
sg7
F2019.5740208625793
sg8
I1000
sg9
I57
sa(dp124
g5
(F0.303
F0.458
F0.531
I402
I1
tp125
sg7
F2059.1770310401917
sg8
I1000
sg9
I58
sa(dp126
g5
(F0.318
F0.46
F0.525
I479
I2
tp127
sg7
F2095.194195985794
sg8
I1000
sg9
I59
sa(dp128
g5
(F0.3
F0.437
F0.528
I458
I2
tp129
sg7
F2147.3578720092773
sg8
I1000
sg9
I60
sa(dp130
g5
(F0.314
F0.431
F0.516
I464
I2
tp131
sg7
F2190.968754053116
sg8
I1000
sg9
I61
sa(dp132
g5
(F0.297
F0.433
F0.512
I427
I2
tp133
sg7
F2240.860205888748
sg8
I1000
sg9
I62
sa(dp134
g5
(F0.302
F0.446
F0.54
I427
I3
tp135
sg7
F2281.736598968506
sg8
I1000
sg9
I63
sa(dp136
g5
(F0.312
F0.429
F0.538
I432
I3
tp137
sg7
F2322.922183036804
sg8
I1000
sg9
I64
sa(dp138
g5
(F0.309
F0.439
F0.548
I460
I3
tp139
sg7
F2363.985410928726
sg8
I1000
sg9
I65
sa(dp140
g5
(F0.331
F0.435
F0.548
I470
I1
tp141
sg7
F2412.3621180057526
sg8
I1000
sg9
I66
sa(dp142
g5
(F0.29
F0.443
F0.524
I427
I1
tp143
sg7
F2463.3824779987335
sg8
I1000
sg9
I67
sa(dp144
g5
(F0.293
F0.447
F0.532
I432
I3
tp145
sg7
F2502.539983034134
sg8
I1000
sg9
I68
sa(dp146
g5
(F0.289
F0.427
F0.528
I440
I5
tp147
sg7
F2545.253823041916
sg8
I1000
sg9
I69
sa(dp148
g5
(F0.309
F0.432
F0.522
I455
I2
tp149
sg7
F2588.9172060489655
sg8
I1000
sg9
I70
sa(dp150
g5
(F0.299
F0.462
F0.533
I425
I3
tp151
sg7
F2637.957401037216
sg8
I1000
sg9
I71
sa(dp152
g5
(F0.3
F0.422
F0.548
I436
I4
tp153
sg7
F2677.0841388702393
sg8
I1000
sg9
I72
sa(dp154
g5
(F0.291
F0.441
F0.52
I442
I3
tp155
sg7
F2715.9623918533325
sg8
I1000
sg9
I73
sa(dp156
g5
(F0.306
F0.431
F0.55
I418
I1
tp157
sg7
F2762.06689786911
sg8
I1000
sg9
I74
sa(dp158
g5
(F0.298
F0.466
F0.55
I435
I1
tp159
sg7
F2800.4189178943634
sg8
I1000
sg9
I75
sa(dp160
g5
(F0.303
F0.438
F0.53
I427
I2
tp161
sg7
F2843.4569549560547
sg8
I1000
sg9
I76
sa(dp162
g5
(F0.312
F0.459
F0.534
I419
I2
tp163
sg7
F2881.397484064102
sg8
I1000
sg9
I77
sa(dp164
g5
(F0.31
F0.435
F0.534
I431
I2
tp165
sg7
F2919.9862790107727
sg8
I1000
sg9
I78
sa(dp166
g5
(F0.314
F0.468
F0.543
I421
I2
tp167
sg7
F2960.1013119220734
sg8
I1000
sg9
I79
sa(dp168
g5
(F0.312
F0.424
F0.541
I425
I1
tp169
sg7
F2995.076269865036
sg8
I1000
sg9
I80
sa(dp170
g5
(F0.318
F0.415
F0.551
I427
I2
tp171
sg7
F3036.8145639896393
sg8
I1000
sg9
I81
sa(dp172
g5
(F0.318
F0.437
F0.543
I417
I3
tp173
sg7
F3076.734969854355
sg8
I1000
sg9
I82
sa(dp174
g5
(F0.306
F0.416
F0.545
I446
I1
tp175
sg7
F3114.722713947296
sg8
I1000
sg9
I83
sa(dp176
g5
(F0.302
F0.443
F0.538
I446
I2
tp177
sg7
F3156.183322906494
sg8
I1000
sg9
I84
sa(dp178
g5
(F0.301
F0.425
F0.546
I458
I2
tp179
sg7
F3200.6966149806976
sg8
I1000
sg9
I85
sa(dp180
g5
(F0.315
F0.445
F0.551
I432
I2
tp181
sg7
F3244.7259769439697
sg8
I1000
sg9
I86
sa(dp182
g5
(F0.307
F0.441
F0.53
I460
I2
tp183
sg7
F3288.8744280338287
sg8
I1000
sg9
I87
sa(dp184
g5
(F0.339
F0.428
F0.55
I473
I3
tp185
sg7
F3334.204050064087
sg8
I1000
sg9
I88
sa(dp186
g5
(F0.31
F0.429
F0.523
I461
I2
tp187
sg7
F3380.9583780765533
sg8
I1000
sg9
I89
sa(dp188
g5
(F0.324
F0.436
F0.543
I478
I2
tp189
sg7
F3433.029590845108
sg8
I1000
sg9
I90
sa(dp190
g5
(F0.312
F0.431
F0.529
I482
I2
tp191
sg7
F3484.8624539375305
sg8
I1000
sg9
I91
sa(dp192
g5
(F0.316
F0.463
F0.533
I433
I4
tp193
sg7
F3536.6644508838654
sg8
I1000
sg9
I92
sa(dp194
g5
(F0.3
F0.417
F0.543
I476
I6
tp195
sg7
F3577.1525840759277
sg8
I1000
sg9
I93
sa(dp196
g5
(F0.315
F0.448
F0.524
I462
I3
tp197
sg7
F3625.0030710697174
sg8
I1000
sg9
I94
sa(dp198
g5
(F0.319
F0.439
F0.528
I459
I1
tp199
sg7
F3670.907220840454
sg8
I1000
sg9
I95
sa(dp200
g5
(F0.305
F0.456
F0.532
I434
I3
tp201
sg7
F3720.4118950366974
sg8
I1000
sg9
I96
sa(dp202
g5
(F0.291
F0.463
F0.493
I427
I5
tp203
sg7
F3761.0430788993835
sg8
I1000
sg9
I97
sa(dp204
g5
(F0.307
F0.448
F0.506
I438
I6
tp205
sg7
F3801.985972881317
sg8
I1000
sg9
I98
sa(dp206
g5
(F0.303
F0.401
F0.534
I431
I4
tp207
sg7
F3843.7760660648346
sg8
I1000
sg9
I99
sa(dp208
g5
(F0.309
F0.4
F0.523
I415
I2
tp209
sg7
F3884.5013568401337
sg8
I1000
sg9
I100
sa(dp210
g5
(F0.299
F0.459
F0.504
I448
I6
tp211
sg7
F3924.9664900302887
sg8
I1000
sg9
I101
sa(dp212
g5
(F0.317
F0.442
F0.523
I443
I2
tp213
sg7
F3968.28413105011
sg8
I1000
sg9
I102
sa(dp214
g5
(F0.309
F0.437
F0.52
I427
I2
tp215
sg7
F4013.257183074951
sg8
I1000
sg9
I103
sa(dp216
g5
(F0.309
F0.459
F0.512
I419
I3
tp217
sg7
F4052.0121200084686
sg8
I1000
sg9
I104
sa(dp218
g5
(F0.301
F0.435
F0.524
I433
I3
tp219
sg7
F4089.1794979572296
sg8
I1000
sg9
I105
sa(dp220
g5
(F0.298
F0.455
F0.541
I449
I3
tp221
sg7
F4131.744377851486
sg8
I1000
sg9
I106
sa(dp222
g5
(F0.331
F0.441
F0.561
I404
I3
tp223
sg7
F4176.023642063141
sg8
I1000
sg9
I107
sa(dp224
g5
(F0.308
F0.466
F0.536
I418
I1
tp225
sg7
F4211.23286986351
sg8
I1000
sg9
I108
sa(dp226
g5
(F0.309
F0.46
F0.549
I414
I1
tp227
sg7
F4250.18233704567
sg8
I1000
sg9
I109
sa(dp228
g5
(F0.321
F0.488
F0.528
I427
I2
tp229
sg7
F4288.81156206131
sg8
I1000
sg9
I110
sa(dp230
g5
(F0.314
F0.45
F0.523
I455
I2
tp231
sg7
F4330.212558031082
sg8
I1000
sg9
I111
sa(dp232
g5
(F0.317
F0.442
F0.543
I422
I2
tp233
sg7
F4376.703806877136
sg8
I1000
sg9
I112
sa(dp234
g5
(F0.298
F0.46
F0.535
I457
I6
tp235
sg7
F4414.872298955917
sg8
I1000
sg9
I113
sa(dp236
g5
(F0.31
F0.466
F0.527
I402
I2
tp237
sg7
F4459.639489889145
sg8
I1000
sg9
I114
sa(dp238
g5
(F0.309
F0.431
F0.537
I432
I2
tp239
sg7
F4493.93495798111
sg8
I1000
sg9
I115
sa(dp240
g5
(F0.316
F0.451
F0.532
I420
I4
tp241
sg7
F4533.551137924194
sg8
I1000
sg9
I116
sa(dp242
g5
(F0.314
F0.447
F0.532
I443
I1
tp243
sg7
F4571.655560970306
sg8
I1000
sg9
I117
sa(dp244
g5
(F0.309
F0.434
F0.541
I427
I3
tp245
sg7
F4612.503778934479
sg8
I1000
sg9
I118
sa(dp246
g5
(F0.318
F0.443
F0.536
I437
I2
tp247
sg7
F4648.897897005081
sg8
I1000
sg9
I119
sa(dp248
g5
(F0.336
F0.431
F0.542
I449
I1
tp249
sg7
F4691.6407289505005
sg8
I1000
sg9
I120
sa(dp250
g5
(F0.318
F0.453
F0.539
I439
I2
tp251
sg7
F4733.864342927933
sg8
I1000
sg9
I121
sa(dp252
g5
(F0.31
F0.441
F0.542
I418
I0
tp253
sg7
F4774.677412986755
sg8
I1000
sg9
I122
sa(dp254
g5
(F0.317
F0.409
F0.525
I425
I1
tp255
sg7
F4812.810415029526
sg8
I1000
sg9
I123
sa(dp256
g5
(F0.307
F0.428
F0.512
I409
I0
tp257
sg7
F4851.609498023987
sg8
I1000
sg9
I124
sa(dp258
g5
(F0.317
F0.456
F0.532
I432
I1
tp259
sg7
F4885.223315954208
sg8
I1000
sg9
I125
sa(dp260
g5
(F0.309
F0.415
F0.524
I471
I1
tp261
sg7
F4923.734430074692
sg8
I1000
sg9
I126
sa(dp262
g5
(F0.296
F0.447
F0.531
I438
I0
tp263
sg7
F4974.633369922638
sg8
I1000
sg9
I127
sa(dp264
g5
(F0.314
F0.437
F0.548
I447
I0
tp265
sg7
F5015.988620042801
sg8
I1000
sg9
I128
sa(dp266
g5
(F0.313
F0.42
F0.551
I424
I1
tp267
sg7
F5060.5661590099335
sg8
I1000
sg9
I129
sa(dp268
g5
(F0.31
F0.446
F0.542
I445
I5
tp269
sg7
F5100.125616073608
sg8
I1000
sg9
I130
sa(dp270
g5
(F0.31
F0.414
F0.542
I400
I3
tp271
sg7
F5143.634542942047
sg8
I1000
sg9
I131
sa(dp272
g5
(F0.307
F0.47
F0.523
I428
I1
tp273
sg7
F5179.551071882248
sg8
I1000
sg9
I132
sa(dp274
g5
(F0.296
F0.442
F0.533
I447
I3
tp275
sg7
F5220.439252853394
sg8
I1000
sg9
I133
sa(dp276
g5
(F0.308
F0.436
F0.526
I436
I1
tp277
sg7
F5266.648396015167
sg8
I1000
sg9
I134
sa(dp278
g5
(F0.324
F0.456
F0.523
I454
I4
tp279
sg7
F5309.198641061783
sg8
I1000
sg9
I135
sa(dp280
g5
(F0.326
F0.431
F0.536
I448
I2
tp281
sg7
F5355.3518669605255
sg8
I1000
sg9
I136
sa(dp282
g5
(F0.319
F0.422
F0.531
I456
I1
tp283
sg7
F5398.737766981125
sg8
I1000
sg9
I137
sa(dp284
g5
(F0.324
F0.457
F0.518
I439
I2
tp285
sg7
F5444.577316045761
sg8
I1000
sg9
I138
sa(dp286
g5
(F0.318
F0.444
F0.531
I458
I3
tp287
sg7
F5488.4486339092255
sg8
I1000
sg9
I139
sa(dp288
g5
(F0.313
F0.428
F0.534
I420
I1
tp289
sg7
F5535.902982950211
sg8
I1000
sg9
I140
sa(dp290
g5
(F0.31
F0.469
F0.521
I421
I2
tp291
sg7
F5573.416429042816
sg8
I1000
sg9
I141
sa(dp292
g5
(F0.328
F0.437
F0.513
I419
I2
tp293
sg7
F5613.3266479969025
sg8
I1000
sg9
I142
sa(dp294
g5
(F0.313
F0.419
F0.513
I440
I2
tp295
sg7
F5657.063701868057
sg8
I1000
sg9
I143
sa(dp296
g5
(F0.304
F0.437
F0.519
I423
I3
tp297
sg7
F5699.283331871033
sg8
I1000
sg9
I144
sa(dp298
g5
(F0.316
F0.469
F0.536
I432
I0
tp299
sg7
F5737.1683049201965
sg8
I1000
sg9
I145
sa(dp300
g5
(F0.304
F0.443
F0.496
I448
I2
tp301
sg7
F5777.398583889008
sg8
I1000
sg9
I146
sa(dp302
g5
(F0.309
F0.463
F0.496
I438
I1
tp303
sg7
F5818.814986944199
sg8
I1000
sg9
I147
sa(dp304
g5
(F0.309
F0.448
F0.498
I420
I2
tp305
sg7
F5859.0470180511475
sg8
I1000
sg9
I148
sa(dp306
g5
(F0.302
F0.457
F0.51
I453
I2
tp307
sg7
F5896.900495052338
sg8
I1000
sg9
I149
sa(dp308
g5
(F0.3
F0.433
F0.493
I399
I2
tp309
sg7
F5941.168016910553
sg8
I1000
sg9
I150
sa(dp310
g5
(F0.324
F0.435
F0.502
I464
I2
tp311
sg7
F5977.347496032715
sg8
I1000
sg9
I151
sa(dp312
g5
(F0.316
F0.433
F0.501
I440
I2
tp313
sg7
F6027.117094993591
sg8
I1000
sg9
I152
sa(dp314
g5
(F0.305
F0.427
F0.496
I436
I4
tp315
sg7
F6072.74421787262
sg8
I1000
sg9
I153
sa(dp316
g5
(F0.304
F0.437
F0.494
I424
I2
tp317
sg7
F6113.361927032471
sg8
I1000
sg9
I154
sa(dp318
g5
(F0.314
F0.416
F0.519
I417
I2
tp319
sg7
F6153.693974971771
sg8
I1000
sg9
I155
sa(dp320
g5
(F0.308
F0.428
F0.525
I440
I1
tp321
sg7
F6191.137450933456
sg8
I1000
sg9
I156
sa(dp322
g5
(F0.323
F0.426
F0.508
I454
I2
tp323
sg7
F6230.831331014633
sg8
I1000
sg9
I157
sa(dp324
g5
(F0.302
F0.408
F0.525
I438
I1
tp325
sg7
F6275.1711139678955
sg8
I1000
sg9
I158
sa(dp326
g5
(F0.324
F0.413
F0.536
I452
I2
tp327
sg7
F6316.4170389175415
sg8
I1000
sg9
I159
sa(dp328
g5
(F0.306
F0.406
F0.538
I463
I1
tp329
sg7
F6359.811362028122
sg8
I1000
sg9
I160
sa(dp330
g5
(F0.306
F0.427
F0.532
I475
I3
tp331
sg7
F6409.145313978195
sg8
I1000
sg9
I161
sa(dp332
g5
(F0.303
F0.417
F0.519
I465
I3
tp333
sg7
F6457.475467920303
sg8
I1000
sg9
I162
sa(dp334
g5
(F0.304
F0.413
F0.525
I450
I4
tp335
sg7
F6504.8552050590515
sg8
I1000
sg9
I163
sa(dp336
g5
(F0.298
F0.436
F0.519
I459
I4
tp337
sg7
F6548.12380194664
sg8
I1000
sg9
I164
sa(dp338
g5
(F0.295
F0.434
F0.536
I460
I2
tp339
sg7
F6597.599704027176
sg8
I1000
sg9
I165
sa(dp340
g5
(F0.306
F0.455
F0.54
I439
I1
tp341
sg7
F6650.420000076294
sg8
I1000
sg9
I166
sa(dp342
g5
(F0.296
F0.44
F0.534
I441
I1
tp343
sg7
F6691.061600923538
sg8
I1000
sg9
I167
sa(dp344
g5
(F0.307
F0.451
F0.531
I458
I1
tp345
sg7
F6733.120888948441
sg8
I1000
sg9
I168
sa(dp346
g5
(F0.3
F0.438
F0.537
I445
I1
tp347
sg7
F6779.952287912369
sg8
I1000
sg9
I169
sa(dp348
g5
(F0.306
F0.43
F0.54
I436
I0
tp349
sg7
F6821.92026591301
sg8
I1000
sg9
I170
sa(dp350
g5
(F0.316
F0.443
F0.528
I455
I3
tp351
sg7
F6861.187342882156
sg8
I1000
sg9
I171
sa(dp352
g5
(F0.305
F0.444
F0.531
I434
I2
tp353
sg7
F6908.74315404892
sg8
I1000
sg9
I172
sa(dp354
g5
(F0.301
F0.425
F0.545
I448
I1
tp355
sg7
F6953.82474398613
sg8
I1000
sg9
I173
sa(dp356
g5
(F0.316
F0.431
F0.531
I449
I1
tp357
sg7
F7000.57147192955
sg8
I1000
sg9
I174
sa(dp358
g5
(F0.306
F0.411
F0.553
I457
I2
tp359
sg7
F7050.07742190361
sg8
I1000
sg9
I175
sa(dp360
g5
(F0.321
F0.441
F0.521
I433
I2
tp361
sg7
F7096.4220378398895
sg8
I1000
sg9
I176
sa(dp362
g5
(F0.31
F0.434
F0.547
I467
I1
tp363
sg7
F7138.970459938049
sg8
I1000
sg9
I177
sa(dp364
g5
(F0.304
F0.44
F0.537
I379
I2
tp365
sg7
F7184.446588039398
sg8
I1000
sg9
I178
sa(dp366
g5
(F0.3
F0.443
F0.528
I402
I0
tp367
sg7
F7216.368592977524
sg8
I1000
sg9
I179
sa(dp368
g5
(F0.314
F0.423
F0.543
I387
I4
tp369
sg7
F7251.272891044617
sg8
I1000
sg9
I180
sa(dp370
g5
(F0.31
F0.457
F0.527
I422
I1
tp371
sg7
F7281.98804807663
sg8
I1000
sg9
I181
sa(dp372
g5
(F0.304
F0.46
F0.518
I399
I3
tp373
sg7
F7317.725600004196
sg8
I1000
sg9
I182
sa(dp374
g5
(F0.322
F0.451
F0.522
I443
I4
tp375
sg7
F7354.021957874298
sg8
I1000
sg9
I183
sa(dp376
g5
(F0.311
F0.452
F0.532
I460
I3
tp377
sg7
F7395.3940188884735
sg8
I1000
sg9
I184
sa(dp378
g5
(F0.328
F0.432
F0.543
I420
I3
tp379
sg7
F7437.82567191124
sg8
I1000
sg9
I185
sa(dp380
g5
(F0.315
F0.455
F0.531
I464
I4
tp381
sg7
F7472.681362867355
sg8
I1000
sg9
I186
satp382
Rp383
(dp384
S'log_header'
p385
I01
sS'header'
p386
(S'gen'
p387
S'evals'
p388
S'hv|spread|igd|frontier#|valid#'
p389
S'timestamp'
p390
tp391
sS'columns_len'
p392
(lp393
I3
aI5
aI30
aI9
asS'buffindex'
p394
I187
sS'chapters'
p395
ccollections
defaultdict
p396
(g1
tp397
Rp398
sb.