ccopy_reg
_reconstructor
p0
(cdeap.tools.support
Logbook
p1
c__builtin__
list
p2
(lp3
(dp4
S'hv|spread|igd|frontier#|valid#'
p5
(F0.282
F0.517
F0.844
I80
I0
tp6
sS'timestamp'
p7
F2.0110700130462646
sS'evals'
p8
I1000
sS'gen'
p9
I0
sa(dp10
g5
(F0.311
F0.562
F0.804
I115
I0
tp11
sg7
F15.755584955215454
sg8
I1000
sg9
I1
sa(dp12
g5
(F0.334
F0.471
F0.754
I136
I0
tp13
sg7
F20.468897104263306
sg8
I1000
sg9
I2
sa(dp14
g5
(F0.34
F0.575
F0.702
I161
I0
tp15
sg7
F25.722445964813232
sg8
I1000
sg9
I3
sa(dp16
g5
(F0.349
F0.54
F0.692
I171
I0
tp17
sg7
F31.551953077316284
sg8
I1000
sg9
I4
sa(dp18
g5
(F0.369
F0.498
F0.691
I190
I0
tp19
sg7
F38.13114094734192
sg8
I1000
sg9
I5
sa(dp20
g5
(F0.379
F0.477
F0.657
I192
I0
tp21
sg7
F45.47559094429016
sg8
I1000
sg9
I6
sa(dp22
g5
(F0.366
F0.439
F0.642
I223
I0
tp23
sg7
F53.426084995269775
sg8
I1000
sg9
I7
sa(dp24
g5
(F0.365
F0.463
F0.633
I233
I0
tp25
sg7
F64.74073815345764
sg8
I1000
sg9
I8
sa(dp26
g5
(F0.359
F0.531
F0.658
I249
I0
tp27
sg7
F75.30607104301453
sg8
I1000
sg9
I9
sa(dp28
g5
(F0.389
F0.498
F0.641
I260
I0
tp29
sg7
F88.63832902908325
sg8
I1000
sg9
I10
sa(dp30
g5
(F0.356
F0.456
F0.599
I237
I0
tp31
sg7
F103.80143904685974
sg8
I1000
sg9
I11
sa(dp32
g5
(F0.372
F0.54
F0.603
I245
I0
tp33
sg7
F116.13058614730835
sg8
I1000
sg9
I12
sa(dp34
g5
(F0.395
F0.565
F0.616
I255
I0
tp35
sg7
F131.21624898910522
sg8
I1000
sg9
I13
sa(dp36
g5
(F0.384
F0.515
F0.615
I267
I0
tp37
sg7
F146.3070821762085
sg8
I1000
sg9
I14
sa(dp38
g5
(F0.367
F0.478
F0.608
I259
I0
tp39
sg7
F162.49963903427124
sg8
I1000
sg9
I15
sa(dp40
g5
(F0.37
F0.522
F0.588
I251
I0
tp41
sg7
F177.32998204231262
sg8
I1000
sg9
I16
sa(dp42
g5
(F0.366
F0.547
F0.589
I264
I0
tp43
sg7
F192.74429512023926
sg8
I1000
sg9
I17
sa(dp44
g5
(F0.377
F0.499
F0.606
I254
I0
tp45
sg7
F207.5717589855194
sg8
I1000
sg9
I18
sa(dp46
g5
(F0.362
F0.531
F0.581
I265
I0
tp47
sg7
F222.0210919380188
sg8
I1000
sg9
I19
sa(dp48
g5
(F0.364
F0.537
F0.597
I266
I0
tp49
sg7
F239.57944703102112
sg8
I1000
sg9
I20
sa(dp50
g5
(F0.377
F0.511
F0.593
I258
I0
tp51
sg7
F256.1137821674347
sg8
I1000
sg9
I21
sa(dp52
g5
(F0.348
F0.55
F0.606
I269
I0
tp53
sg7
F270.40798115730286
sg8
I1000
sg9
I22
sa(dp54
g5
(F0.356
F0.512
F0.569
I263
I0
tp55
sg7
F285.4863030910492
sg8
I1000
sg9
I23
sa(dp56
g5
(F0.366
F0.501
F0.565
I257
I0
tp57
sg7
F305.23029494285583
sg8
I1000
sg9
I24
sa(dp58
g5
(F0.371
F0.504
F0.562
I261
I0
tp59
sg7
F320.4073660373688
sg8
I1000
sg9
I25
sa(dp60
g5
(F0.374
F0.49
F0.583
I261
I0
tp61
sg7
F334.3364460468292
sg8
I1000
sg9
I26
sa(dp62
g5
(F0.39
F0.519
F0.583
I311
I0
tp63
sg7
F352.95127296447754
sg8
I1000
sg9
I27
sa(dp64
g5
(F0.372
F0.512
F0.55
I281
I0
tp65
sg7
F374.63386702537537
sg8
I1000
sg9
I28
sa(dp66
g5
(F0.38
F0.512
F0.571
I278
I0
tp67
sg7
F391.08464908599854
sg8
I1000
sg9
I29
sa(dp68
g5
(F0.373
F0.478
F0.552
I286
I0
tp69
sg7
F407.72715616226196
sg8
I1000
sg9
I30
sa(dp70
g5
(F0.374
F0.437
F0.574
I284
I0
tp71
sg7
F424.61420702934265
sg8
I1000
sg9
I31
sa(dp72
g5
(F0.369
F0.49
F0.565
I298
I0
tp73
sg7
F443.1352310180664
sg8
I1000
sg9
I32
sa(dp74
g5
(F0.393
F0.459
F0.576
I287
I0
tp75
sg7
F462.018728017807
sg8
I1000
sg9
I33
sa(dp76
g5
(F0.391
F0.502
F0.583
I276
I0
tp77
sg7
F477.946081161499
sg8
I1000
sg9
I34
sa(dp78
g5
(F0.378
F0.5
F0.584
I296
I0
tp79
sg7
F493.5647840499878
sg8
I1000
sg9
I35
sa(dp80
g5
(F0.364
F0.464
F0.582
I298
I0
tp81
sg7
F512.7802791595459
sg8
I1000
sg9
I36
sa(dp82
g5
(F0.36
F0.477
F0.571
I273
I0
tp83
sg7
F532.7004189491272
sg8
I1000
sg9
I37
sa(dp84
g5
(F0.393
F0.45
F0.591
I289
I0
tp85
sg7
F546.5165209770203
sg8
I1000
sg9
I38
sa(dp86
g5
(F0.381
F0.483
F0.589
I280
I0
tp87
sg7
F565.147961139679
sg8
I1000
sg9
I39
sa(dp88
g5
(F0.377
F0.47
F0.585
I294
I0
tp89
sg7
F580.7535970211029
sg8
I1000
sg9
I40
sa(dp90
g5
(F0.373
F0.476
F0.601
I293
I0
tp91
sg7
F599.041216135025
sg8
I1000
sg9
I41
sa(dp92
g5
(F0.366
F0.5
F0.601
I292
I0
tp93
sg7
F618.335037946701
sg8
I1000
sg9
I42
sa(dp94
g5
(F0.401
F0.431
F0.605
I284
I0
tp95
sg7
F637.432893037796
sg8
I1000
sg9
I43
sa(dp96
g5
(F0.385
F0.484
F0.603
I304
I0
tp97
sg7
F653.9927940368652
sg8
I1000
sg9
I44
sa(dp98
g5
(F0.391
F0.465
F0.587
I296
I0
tp99
sg7
F673.7447221279144
sg8
I1000
sg9
I45
sa(dp100
g5
(F0.39
F0.481
F0.583
I282
I0
tp101
sg7
F691.3867311477661
sg8
I1000
sg9
I46
sa(dp102
g5
(F0.394
F0.482
F0.592
I299
I0
tp103
sg7
F708.9971981048584
sg8
I1000
sg9
I47
sa(dp104
g5
(F0.388
F0.507
F0.608
I300
I0
tp105
sg7
F727.4783191680908
sg8
I1000
sg9
I48
sa(dp106
g5
(F0.386
F0.503
F0.582
I288
I0
tp107
sg7
F747.4963800907135
sg8
I1000
sg9
I49
sa(dp108
g5
(F0.393
F0.495
F0.564
I273
I0
tp109
sg7
F766.6531579494476
sg8
I1000
sg9
I50
sa(dp110
g5
(F0.394
F0.499
F0.594
I284
I0
tp111
sg7
F783.7097001075745
sg8
I1000
sg9
I51
sa(dp112
g5
(F0.382
F0.464
F0.588
I285
I0
tp113
sg7
F799.5462739467621
sg8
I1000
sg9
I52
sa(dp114
g5
(F0.377
F0.517
F0.575
I303
I0
tp115
sg7
F815.072597026825
sg8
I1000
sg9
I53
sa(dp116
g5
(F0.39
F0.52
F0.577
I294
I0
tp117
sg7
F834.0872840881348
sg8
I1000
sg9
I54
sa(dp118
g5
(F0.394
F0.522
F0.566
I295
I0
tp119
sg7
F852.3268711566925
sg8
I1000
sg9
I55
sa(dp120
g5
(F0.386
F0.516
F0.588
I297
I0
tp121
sg7
F870.1393210887909
sg8
I1000
sg9
I56
sa(dp122
g5
(F0.39
F0.495
F0.581
I307
I0
tp123
sg7
F889.0248589515686
sg8
I1000
sg9
I57
sa(dp124
g5
(F0.379
F0.513
F0.573
I306
I0
tp125
sg7
F906.5229451656342
sg8
I1000
sg9
I58
sa(dp126
g5
(F0.398
F0.515
F0.565
I285
I0
tp127
sg7
F924.1356110572815
sg8
I1000
sg9
I59
sa(dp128
g5
(F0.388
F0.497
F0.572
I286
I0
tp129
sg7
F942.4872460365295
sg8
I1000
sg9
I60
sa(dp130
g5
(F0.385
F0.518
F0.607
I295
I0
tp131
sg7
F958.7504031658173
sg8
I1000
sg9
I61
sa(dp132
g5
(F0.38
F0.479
F0.616
I322
I0
tp133
sg7
F977.6620390415192
sg8
I1000
sg9
I62
sa(dp134
g5
(F0.394
F0.476
F0.615
I283
I0
tp135
sg7
F1001.5618710517883
sg8
I1000
sg9
I63
sa(dp136
g5
(F0.384
F0.458
F0.585
I295
I0
tp137
sg7
F1017.1291790008545
sg8
I1000
sg9
I64
sa(dp138
g5
(F0.395
F0.501
F0.591
I272
I0
tp139
sg7
F1034.8774161338806
sg8
I1000
sg9
I65
sa(dp140
g5
(F0.423
F0.495
F0.619
I317
I0
tp141
sg7
F1050.5653591156006
sg8
I1000
sg9
I66
sa(dp142
g5
(F0.386
F0.486
F0.614
I304
I0
tp143
sg7
F1072.0549941062927
sg8
I1000
sg9
I67
sa(dp144
g5
(F0.392
F0.473
F0.609
I299
I0
tp145
sg7
F1089.641986131668
sg8
I1000
sg9
I68
sa(dp146
g5
(F0.401
F0.482
F0.608
I304
I0
tp147
sg7
F1109.0424389839172
sg8
I1000
sg9
I69
sa(dp148
g5
(F0.4
F0.506
F0.624
I309
I0
tp149
sg7
F1129.0779449939728
sg8
I1000
sg9
I70
sa(dp150
g5
(F0.402
F0.496
F0.6
I288
I1
tp151
sg7
F1148.041141986847
sg8
I1000
sg9
I71
sa(dp152
g5
(F0.399
F0.457
F0.628
I299
I0
tp153
sg7
F1164.0105781555176
sg8
I1000
sg9
I72
sa(dp154
g5
(F0.409
F0.487
F0.611
I311
I0
tp155
sg7
F1183.7739951610565
sg8
I1000
sg9
I73
sa(dp156
g5
(F0.395
F0.447
F0.637
I312
I0
tp157
sg7
F1203.4902701377869
sg8
I1000
sg9
I74
sa(dp158
g5
(F0.395
F0.471
F0.621
I319
I0
tp159
sg7
F1226.465693950653
sg8
I1000
sg9
I75
sa(dp160
g5
(F0.384
F0.484
F0.613
I294
I0
tp161
sg7
F1246.4990799427032
sg8
I1000
sg9
I76
sa(dp162
g5
(F0.408
F0.517
F0.605
I306
I0
tp163
sg7
F1265.442087173462
sg8
I1000
sg9
I77
sa(dp164
g5
(F0.391
F0.462
F0.611
I309
I0
tp165
sg7
F1283.898596048355
sg8
I1000
sg9
I78
sa(dp166
g5
(F0.39
F0.468
F0.624
I316
I0
tp167
sg7
F1304.536463022232
sg8
I1000
sg9
I79
sa(dp168
g5
(F0.401
F0.503
F0.611
I322
I0
tp169
sg7
F1325.0207221508026
sg8
I1000
sg9
I80
sa(dp170
g5
(F0.38
F0.513
F0.607
I318
I0
tp171
sg7
F1346.4245171546936
sg8
I1000
sg9
I81
sa(dp172
g5
(F0.398
F0.456
F0.62
I321
I0
tp173
sg7
F1368.812567949295
sg8
I1000
sg9
I82
sa(dp174
g5
(F0.409
F0.468
F0.627
I338
I0
tp175
sg7
F1389.2994940280914
sg8
I1000
sg9
I83
sa(dp176
g5
(F0.393
F0.418
F0.619
I299
I0
tp177
sg7
F1411.8296310901642
sg8
I1000
sg9
I84
sa(dp178
g5
(F0.412
F0.5
F0.615
I309
I0
tp179
sg7
F1430.3066601753235
sg8
I1000
sg9
I85
sa(dp180
g5
(F0.388
F0.487
F0.606
I277
I0
tp181
sg7
F1449.9257020950317
sg8
I1000
sg9
I86
sa(dp182
g5
(F0.393
F0.457
F0.612
I313
I0
tp183
sg7
F1465.8050441741943
sg8
I1000
sg9
I87
sa(dp184
g5
(F0.409
F0.477
F0.619
I302
I0
tp185
sg7
F1486.357274055481
sg8
I1000
sg9
I88
sa(dp186
g5
(F0.386
F0.478
F0.602
I288
I0
tp187
sg7
F1506.0014200210571
sg8
I1000
sg9
I89
sa(dp188
g5
(F0.388
F0.492
F0.618
I301
I0
tp189
sg7
F1524.16046500206
sg8
I1000
sg9
I90
sa(dp190
g5
(F0.402
F0.508
F0.604
I297
I0
tp191
sg7
F1544.0680799484253
sg8
I1000
sg9
I91
sa(dp192
g5
(F0.387
F0.449
F0.617
I301
I0
tp193
sg7
F1562.1512260437012
sg8
I1000
sg9
I92
sa(dp194
g5
(F0.387
F0.464
F0.606
I279
I0
tp195
sg7
F1578.862342119217
sg8
I1000
sg9
I93
sa(dp196
g5
(F0.385
F0.471
F0.607
I274
I0
tp197
sg7
F1595.1836211681366
sg8
I1000
sg9
I94
sa(dp198
g5
(F0.393
F0.5
F0.619
I291
I0
tp199
sg7
F1612.0421271324158
sg8
I1000
sg9
I95
sa(dp200
g5
(F0.399
F0.505
F0.617
I310
I0
tp201
sg7
F1629.942358970642
sg8
I1000
sg9
I96
sa(dp202
g5
(F0.39
F0.492
F0.613
I268
I0
tp203
sg7
F1650.1967401504517
sg8
I1000
sg9
I97
sa(dp204
g5
(F0.39
F0.481
F0.603
I276
I0
tp205
sg7
F1666.5737881660461
sg8
I1000
sg9
I98
sa(dp206
g5
(F0.386
F0.476
F0.609
I305
I0
tp207
sg7
F1683.0533599853516
sg8
I1000
sg9
I99
sa(dp208
g5
(F0.392
F0.493
F0.612
I310
I0
tp209
sg7
F1703.466845035553
sg8
I1000
sg9
I100
sa(dp210
g5
(F0.385
F0.452
F0.612
I292
I0
tp211
sg7
F1723.3740990161896
sg8
I1000
sg9
I101
sa(dp212
g5
(F0.39
F0.504
F0.59
I294
I0
tp213
sg7
F1742.5002541542053
sg8
I1000
sg9
I102
sa(dp214
g5
(F0.399
F0.484
F0.582
I302
I0
tp215
sg7
F1763.2876989841461
sg8
I1000
sg9
I103
sa(dp216
g5
(F0.404
F0.464
F0.609
I282
I0
tp217
sg7
F1784.648509979248
sg8
I1000
sg9
I104
sa(dp218
g5
(F0.399
F0.507
F0.618
I302
I0
tp219
sg7
F1802.594279050827
sg8
I1000
sg9
I105
sa(dp220
g5
(F0.394
F0.495
F0.606
I285
I0
tp221
sg7
F1820.8936419487
sg8
I1000
sg9
I106
sa(dp222
g5
(F0.395
F0.492
F0.631
I304
I0
tp223
sg7
F1837.783667087555
sg8
I1000
sg9
I107
sa(dp224
g5
(F0.382
F0.467
F0.635
I301
I0
tp225
sg7
F1857.1486821174622
sg8
I1000
sg9
I108
sa(dp226
g5
(F0.395
F0.474
F0.604
I290
I0
tp227
sg7
F1875.2062220573425
sg8
I1000
sg9
I109
sa(dp228
g5
(F0.385
F0.494
F0.619
I305
I0
tp229
sg7
F1892.082808971405
sg8
I1000
sg9
I110
sa(dp230
g5
(F0.393
F0.484
F0.618
I319
I0
tp231
sg7
F1911.6788959503174
sg8
I1000
sg9
I111
sa(dp232
g5
(F0.392
F0.467
F0.611
I309
I0
tp233
sg7
F1933.0221900939941
sg8
I1000
sg9
I112
sa(dp234
g5
(F0.404
F0.482
F0.608
I308
I0
tp235
sg7
F1952.3562669754028
sg8
I1000
sg9
I113
sa(dp236
g5
(F0.387
F0.468
F0.609
I309
I1
tp237
sg7
F1973.4521379470825
sg8
I1000
sg9
I114
sa(dp238
g5
(F0.373
F0.499
F0.61
I296
I0
tp239
sg7
F1993.9886121749878
sg8
I1000
sg9
I115
sa(dp240
g5
(F0.386
F0.51
F0.618
I299
I0
tp241
sg7
F2011.9947581291199
sg8
I1000
sg9
I116
sa(dp242
g5
(F0.399
F0.523
F0.609
I320
I0
tp243
sg7
F2030.8415019512177
sg8
I1000
sg9
I117
sa(dp244
g5
(F0.405
F0.489
F0.589
I297
I0
tp245
sg7
F2052.2363560199738
sg8
I1000
sg9
I118
sa(dp246
g5
(F0.4
F0.528
F0.604
I323
I0
tp247
sg7
F2069.965152978897
sg8
I1000
sg9
I119
sa(dp248
g5
(F0.404
F0.451
F0.603
I318
I0
tp249
sg7
F2090.783854007721
sg8
I1000
sg9
I120
sa(dp250
g5
(F0.411
F0.444
F0.628
I323
I0
tp251
sg7
F2112.4890789985657
sg8
I1000
sg9
I121
sa(dp252
g5
(F0.398
F0.471
F0.613
I309
I0
tp253
sg7
F2135.389002084732
sg8
I1000
sg9
I122
sa(dp254
g5
(F0.397
F0.472
F0.597
I301
I0
tp255
sg7
F2155.864269018173
sg8
I1000
sg9
I123
sa(dp256
g5
(F0.412
F0.478
F0.636
I320
I0
tp257
sg7
F2176.173397064209
sg8
I1000
sg9
I124
sa(dp258
g5
(F0.394
F0.471
F0.601
I289
I0
tp259
sg7
F2196.909418106079
sg8
I1000
sg9
I125
sa(dp260
g5
(F0.39
F0.5
F0.635
I306
I0
tp261
sg7
F2214.026391029358
sg8
I1000
sg9
I126
sa(dp262
g5
(F0.404
F0.44
F0.605
I293
I0
tp263
sg7
F2233.743787050247
sg8
I1000
sg9
I127
sa(dp264
g5
(F0.406
F0.448
F0.605
I307
I0
tp265
sg7
F2249.862436056137
sg8
I1000
sg9
I128
sa(dp266
g5
(F0.399
F0.457
F0.614
I288
I0
tp267
sg7
F2268.34672999382
sg8
I1000
sg9
I129
sa(dp268
g5
(F0.371
F0.471
F0.613
I283
I0
tp269
sg7
F2284.452427148819
sg8
I1000
sg9
I130
sa(dp270
g5
(F0.395
F0.473
F0.626
I289
I0
tp271
sg7
F2299.737673997879
sg8
I1000
sg9
I131
sa(dp272
g5
(F0.406
F0.475
F0.615
I295
I0
tp273
sg7
F2317.0244750976562
sg8
I1000
sg9
I132
sa(dp274
g5
(F0.411
F0.465
F0.635
I276
I1
tp275
sg7
F2333.8846430778503
sg8
I1000
sg9
I133
sa(dp276
g5
(F0.425
F0.44
F0.649
I290
I0
tp277
sg7
F2348.6634709835052
sg8
I1000
sg9
I134
sa(dp278
g5
(F0.409
F0.512
F0.631
I297
I0
tp279
sg7
F2366.4846620559692
sg8
I1000
sg9
I135
sa(dp280
g5
(F0.419
F0.471
F0.643
I335
I0
tp281
sg7
F2385.7626609802246
sg8
I1000
sg9
I136
sa(dp282
g5
(F0.403
F0.452
F0.614
I296
I0
tp283
sg7
F2409.7832510471344
sg8
I1000
sg9
I137
sa(dp284
g5
(F0.407
F0.467
F0.627
I308
I0
tp285
sg7
F2428.2415549755096
sg8
I1000
sg9
I138
sa(dp286
g5
(F0.403
F0.468
F0.622
I299
I0
tp287
sg7
F2447.6660759449005
sg8
I1000
sg9
I139
sa(dp288
g5
(F0.404
F0.487
F0.607
I314
I0
tp289
sg7
F2465.434820175171
sg8
I1000
sg9
I140
sa(dp290
g5
(F0.398
F0.477
F0.614
I288
I0
tp291
sg7
F2484.003441095352
sg8
I1000
sg9
I141
sa(dp292
g5
(F0.413
F0.436
F0.642
I301
I0
tp293
sg7
F2499.983250141144
sg8
I1000
sg9
I142
sa(dp294
g5
(F0.403
F0.494
F0.621
I319
I0
tp295
sg7
F2517.841005086899
sg8
I1000
sg9
I143
sa(dp296
g5
(F0.396
F0.484
F0.608
I319
I0
tp297
sg7
F2539.1415650844574
sg8
I1000
sg9
I144
sa(dp298
g5
(F0.396
F0.473
F0.611
I304
I0
tp299
sg7
F2559.23046708107
sg8
I1000
sg9
I145
sa(dp300
g5
(F0.416
F0.469
F0.626
I280
I0
tp301
sg7
F2578.185392141342
sg8
I1000
sg9
I146
sa(dp302
g5
(F0.388
F0.489
F0.599
I276
I0
tp303
sg7
F2594.233556985855
sg8
I1000
sg9
I147
sa(dp304
g5
(F0.409
F0.444
F0.607
I286
I0
tp305
sg7
F2611.643639087677
sg8
I1000
sg9
I148
sa(dp306
g5
(F0.403
F0.463
F0.622
I298
I0
tp307
sg7
F2628.9734439849854
sg8
I1000
sg9
I149
sa(dp308
g5
(F0.422
F0.485
F0.628
I316
I0
tp309
sg7
F2647.6997520923615
sg8
I1000
sg9
I150
sa(dp310
g5
(F0.395
F0.48
F0.628
I314
I0
tp311
sg7
F2668.209244966507
sg8
I1000
sg9
I151
sa(dp312
g5
(F0.396
F0.489
F0.596
I310
I0
tp313
sg7
F2687.5458891391754
sg8
I1000
sg9
I152
sa(dp314
g5
(F0.405
F0.479
F0.624
I299
I0
tp315
sg7
F2706.4329431056976
sg8
I1000
sg9
I153
sa(dp316
g5
(F0.401
F0.429
F0.638
I292
I0
tp317
sg7
F2723.5346341133118
sg8
I1000
sg9
I154
sa(dp318
g5
(F0.406
F0.487
F0.601
I332
I0
tp319
sg7
F2739.675390958786
sg8
I1000
sg9
I155
sa(dp320
g5
(F0.403
F0.474
F0.605
I316
I0
tp321
sg7
F2759.5892140865326
sg8
I1000
sg9
I156
sa(dp322
g5
(F0.399
F0.454
F0.601
I298
I0
tp323
sg7
F2779.621626138687
sg8
I1000
sg9
I157
sa(dp324
g5
(F0.405
F0.501
F0.616
I314
I0
tp325
sg7
F2798.866853952408
sg8
I1000
sg9
I158
sa(dp326
g5
(F0.392
F0.472
F0.601
I296
I0
tp327
sg7
F2820.9719450473785
sg8
I1000
sg9
I159
sa(dp328
g5
(F0.384
F0.496
F0.588
I308
I0
tp329
sg7
F2838.3038070201874
sg8
I1000
sg9
I160
sa(dp330
g5
(F0.39
F0.465
F0.616
I299
I0
tp331
sg7
F2856.850659132004
sg8
I1000
sg9
I161
sa(dp332
g5
(F0.407
F0.454
F0.625
I312
I0
tp333
sg7
F2874.5304951667786
sg8
I1000
sg9
I162
sa(dp334
g5
(F0.411
F0.456
F0.646
I323
I0
tp335
sg7
F2894.435096025467
sg8
I1000
sg9
I163
sa(dp336
g5
(F0.399
F0.476
F0.601
I317
I0
tp337
sg7
F2917.175565958023
sg8
I1000
sg9
I164
sa(dp338
g5
(F0.399
F0.487
F0.636
I322
I0
tp339
sg7
F2936.066334962845
sg8
I1000
sg9
I165
sa(dp340
g5
(F0.41
F0.454
F0.613
I302
I0
tp341
sg7
F2955.1911351680756
sg8
I1000
sg9
I166
sa(dp342
g5
(F0.415
F0.485
F0.621
I284
I0
tp343
sg7
F2972.1132669448853
sg8
I1000
sg9
I167
sa(dp344
g5
(F0.403
F0.449
F0.604
I284
I0
tp345
sg7
F2989.941358089447
sg8
I1000
sg9
I168
sa(dp346
g5
(F0.4
F0.504
F0.631
I295
I0
tp347
sg7
F3006.0185630321503
sg8
I1000
sg9
I169
sa(dp348
g5
(F0.419
F0.473
F0.63
I313
I0
tp349
sg7
F3023.3882851600647
sg8
I1000
sg9
I170
sa(dp350
g5
(F0.395
F0.516
F0.625
I345
I0
tp351
sg7
F3045.5273571014404
sg8
I1000
sg9
I171
sa(dp352
g5
(F0.4
F0.496
F0.635
I336
I0
tp353
sg7
F3067.414847135544
sg8
I1000
sg9
I172
sa(dp354
g5
(F0.382
F0.482
F0.594
I312
I0
tp355
sg7
F3090.368437051773
sg8
I1000
sg9
I173
sa(dp356
g5
(F0.382
F0.475
F0.598
I309
I0
tp357
sg7
F3110.7889790534973
sg8
I1000
sg9
I174
sa(dp358
g5
(F0.39
F0.486
F0.606
I303
I0
tp359
sg7
F3129.1612610816956
sg8
I1000
sg9
I175
sa(dp360
g5
(F0.402
F0.494
F0.602
I286
I0
tp361
sg7
F3146.8735661506653
sg8
I1000
sg9
I176
sa(dp362
g5
(F0.393
F0.488
F0.601
I315
I0
tp363
sg7
F3164.843721151352
sg8
I1000
sg9
I177
sa(dp364
g5
(F0.387
F0.479
F0.599
I298
I0
tp365
sg7
F3185.2386610507965
sg8
I1000
sg9
I178
sa(dp366
g5
(F0.396
F0.455
F0.613
I295
I0
tp367
sg7
F3203.3222200870514
sg8
I1000
sg9
I179
sa(dp368
g5
(F0.398
F0.475
F0.616
I306
I0
tp369
sg7
F3220.7064411640167
sg8
I1000
sg9
I180
sa(dp370
g5
(F0.378
F0.495
F0.581
I309
I0
tp371
sg7
F3240.822031021118
sg8
I1000
sg9
I181
sa(dp372
g5
(F0.393
F0.469
F0.593
I298
I0
tp373
sg7
F3260.3715801239014
sg8
I1000
sg9
I182
sa(dp374
g5
(F0.381
F0.461
F0.602
I306
I1
tp375
sg7
F3277.8836619853973
sg8
I1000
sg9
I183
sa(dp376
g5
(F0.402
F0.451
F0.615
I309
I0
tp377
sg7
F3297.0276279449463
sg8
I1000
sg9
I184
sa(dp378
g5
(F0.391
F0.493
F0.607
I306
I0
tp379
sg7
F3316.3251440525055
sg8
I1000
sg9
I185
sa(dp380
g5
(F0.397
F0.477
F0.608
I310
I0
tp381
sg7
F3335.2992169857025
sg8
I1000
sg9
I186
sa(dp382
g5
(F0.4
F0.485
F0.634
I324
I0
tp383
sg7
F3354.9755189418793
sg8
I1000
sg9
I187
sa(dp384
g5
(F0.38
F0.459
F0.582
I310
I0
tp385
sg7
F3376.188891172409
sg8
I1000
sg9
I188
sa(dp386
g5
(F0.414
F0.46
F0.58
I312
I1
tp387
sg7
F3395.9274439811707
sg8
I1000
sg9
I189
sa(dp388
g5
(F0.379
F0.484
F0.587
I315
I0
tp389
sg7
F3416.5881481170654
sg8
I1000
sg9
I190
sa(dp390
g5
(F0.385
F0.466
F0.596
I308
I1
tp391
sg7
F3436.0066890716553
sg8
I1000
sg9
I191
sa(dp392
g5
(F0.372
F0.481
F0.603
I290
I1
tp393
sg7
F3456.296347141266
sg8
I1000
sg9
I192
sa(dp394
g5
(F0.399
F0.419
F0.596
I298
I1
tp395
sg7
F3473.071380138397
sg8
I1000
sg9
I193
sa(dp396
g5
(F0.391
F0.478
F0.628
I311
I0
tp397
sg7
F3490.9495029449463
sg8
I1000
sg9
I194
sa(dp398
g5
(F0.392
F0.478
F0.628
I317
I0
tp399
sg7
F3509.5686061382294
sg8
I1000
sg9
I195
sa(dp400
g5
(F0.395
F0.465
F0.614
I295
I0
tp401
sg7
F3529.4224820137024
sg8
I1000
sg9
I196
sa(dp402
g5
(F0.388
F0.466
F0.609
I296
I0
tp403
sg7
F3546.3323380947113
sg8
I1000
sg9
I197
sa(dp404
g5
(F0.394
F0.47
F0.647
I283
I1
tp405
sg7
F3563.649901151657
sg8
I1000
sg9
I198
sa(dp406
g5
(F0.412
F0.497
F0.62
I269
I2
tp407
sg7
F3579.2602009773254
sg8
I1000
sg9
I199
sa(dp408
g5
(F0.393
F0.484
F0.624
I303
I2
tp409
sg7
F3594.2713770866394
sg8
I1000
sg9
I200
sa(dp410
g5
(F0.4
F0.498
F0.61
I277
I3
tp411
sg7
F3609.9026329517365
sg8
I1000
sg9
I201
sa(dp412
g5
(F0.396
F0.471
F0.62
I297
I3
tp413
sg7
F3625.579103946686
sg8
I1000
sg9
I202
sa(dp414
g5
(F0.406
F0.459
F0.6
I282
I2
tp415
sg7
F3642.479506969452
sg8
I1000
sg9
I203
sa(dp416
g5
(F0.421
F0.503
F0.594
I290
I3
tp417
sg7
F3658.2495160102844
sg8
I1000
sg9
I204
sa(dp418
g5
(F0.398
F0.468
F0.617
I309
I1
tp419
sg7
F3674.8366441726685
sg8
I1000
sg9
I205
sa(dp420
g5
(F0.396
F0.504
F0.6
I308
I2
tp421
sg7
F3694.4043519496918
sg8
I1000
sg9
I206
sa(dp422
g5
(F0.381
F0.466
F0.596
I288
I0
tp423
sg7
F3715.893133163452
sg8
I1000
sg9
I207
sa(dp424
g5
(F0.404
F0.473
F0.61
I285
I1
tp425
sg7
F3732.050488948822
sg8
I1000
sg9
I208
sa(dp426
g5
(F0.41
F0.476
F0.588
I274
I1
tp427
sg7
F3748.3538341522217
sg8
I1000
sg9
I209
sa(dp428
g5
(F0.402
F0.437
F0.599
I306
I3
tp429
sg7
F3765.9136691093445
sg8
I1000
sg9
I210
sa(dp430
g5
(F0.409
F0.489
F0.598
I281
I2
tp431
sg7
F3784.415496110916
sg8
I1000
sg9
I211
sa(dp432
g5
(F0.388
F0.473
F0.596
I304
I1
tp433
sg7
F3800.7527639865875
sg8
I1000
sg9
I212
sa(dp434
g5
(F0.389
F0.457
F0.601
I299
I3
tp435
sg7
F3817.5073280334473
sg8
I1000
sg9
I213
sa(dp436
g5
(F0.416
F0.473
F0.585
I309
I0
tp437
sg7
F3834.5552780628204
sg8
I1000
sg9
I214
sa(dp438
g5
(F0.415
F0.459
F0.588
I294
I2
tp439
sg7
F3854.333487033844
sg8
I1000
sg9
I215
sa(dp440
g5
(F0.383
F0.466
F0.565
I307
I2
tp441
sg7
F3872.491332054138
sg8
I1000
sg9
I216
sa(dp442
g5
(F0.382
F0.446
F0.574
I301
I2
tp443
sg7
F3891.4246230125427
sg8
I1000
sg9
I217
sa(dp444
g5
(F0.38
F0.456
F0.591
I305
I1
tp445
sg7
F3909.0046210289
sg8
I1000
sg9
I218
sa(dp446
g5
(F0.381
F0.464
F0.599
I319
I0
tp447
sg7
F3926.7135529518127
sg8
I1000
sg9
I219
sa(dp448
g5
(F0.397
F0.463
F0.592
I336
I2
tp449
sg7
F3947.53977394104
sg8
I1000
sg9
I220
sa(dp450
g5
(F0.396
F0.462
F0.604
I308
I2
tp451
sg7
F3969.1566319465637
sg8
I1000
sg9
I221
sa(dp452
g5
(F0.385
F0.441
F0.59
I314
I2
tp453
sg7
F3987.8972260951996
sg8
I1000
sg9
I222
sa(dp454
g5
(F0.376
F0.414
F0.572
I307
I1
tp455
sg7
F4007.583132982254
sg8
I1000
sg9
I223
sa(dp456
g5
(F0.386
F0.479
F0.568
I310
I2
tp457
sg7
F4026.425542116165
sg8
I1000
sg9
I224
sa(dp458
g5
(F0.37
F0.478
F0.579
I324
I1
tp459
sg7
F4045.3900339603424
sg8
I1000
sg9
I225
sa(dp460
g5
(F0.398
F0.454
F0.578
I315
I1
tp461
sg7
F4064.950129032135
sg8
I1000
sg9
I226
sa(dp462
g5
(F0.381
F0.502
F0.583
I303
I1
tp463
sg7
F4084.6718640327454
sg8
I1000
sg9
I227
sa(dp464
g5
(F0.379
F0.469
F0.579
I294
I1
tp465
sg7
F4102.556663036346
sg8
I1000
sg9
I228
sa(dp466
g5
(F0.409
F0.453
F0.56
I296
I1
tp467
sg7
F4122.276617050171
sg8
I1000
sg9
I229
sa(dp468
g5
(F0.404
F0.495
F0.596
I296
I2
tp469
sg7
F4140.185951948166
sg8
I1000
sg9
I230
sa(dp470
g5
(F0.389
F0.449
F0.575
I286
I1
tp471
sg7
F4157.4953870773315
sg8
I1000
sg9
I231
sa(dp472
g5
(F0.377
F0.486
F0.571
I277
I2
tp473
sg7
F4174.38482093811
sg8
I1000
sg9
I232
sa(dp474
g5
(F0.381
F0.486
F0.578
I284
I0
tp475
sg7
F4190.114817142487
sg8
I1000
sg9
I233
sa(dp476
g5
(F0.416
F0.483
F0.608
I292
I2
tp477
sg7
F4206.636558055878
sg8
I1000
sg9
I234
sa(dp478
g5
(F0.363
F0.534
F0.581
I301
I2
tp479
sg7
F4224.9065990448
sg8
I1000
sg9
I235
sa(dp480
g5
(F0.406
F0.456
F0.596
I314
I1
tp481
sg7
F4242.47604393959
sg8
I1000
sg9
I236
sa(dp482
g5
(F0.397
F0.459
F0.591
I293
I4
tp483
sg7
F4262.14843916893
sg8
I1000
sg9
I237
sa(dp484
g5
(F0.408
F0.49
F0.61
I317
I2
tp485
sg7
F4279.454960107803
sg8
I1000
sg9
I238
sa(dp486
g5
(F0.393
F0.503
F0.597
I275
I3
tp487
sg7
F4300.926471948624
sg8
I1000
sg9
I239
sa(dp488
g5
(F0.386
F0.495
F0.579
I282
I1
tp489
sg7
F4316.020795106888
sg8
I1000
sg9
I240
sa(dp490
g5
(F0.386
F0.484
F0.583
I283
I2
tp491
sg7
F4334.113656997681
sg8
I1000
sg9
I241
sa(dp492
g5
(F0.398
F0.491
F0.602
I283
I1
tp493
sg7
F4350.010555028915
sg8
I1000
sg9
I242
sa(dp494
g5
(F0.403
F0.516
F0.59
I292
I2
tp495
sg7
F4368.706532001495
sg8
I1000
sg9
I243
sa(dp496
g5
(F0.407
F0.47
F0.586
I304
I5
tp497
sg7
F4386.841437101364
sg8
I1000
sg9
I244
sa(dp498
g5
(F0.403
F0.519
F0.58
I307
I2
tp499
sg7
F4406.213047027588
sg8
I1000
sg9
I245
sa(dp500
g5
(F0.382
F0.492
F0.598
I295
I3
tp501
sg7
F4425.906186103821
sg8
I1000
sg9
I246
sa(dp502
g5
(F0.382
F0.46
F0.596
I303
I2
tp503
sg7
F4442.115875005722
sg8
I1000
sg9
I247
sa(dp504
g5
(F0.395
F0.483
F0.603
I294
I2
tp505
sg7
F4459.669903039932
sg8
I1000
sg9
I248
sa(dp506
g5
(F0.393
F0.468
F0.583
I294
I3
tp507
sg7
F4477.4583439826965
sg8
I1000
sg9
I249
sa(dp508
g5
(F0.399
F0.446
F0.603
I287
I2
tp509
sg7
F4494.419721126556
sg8
I1000
sg9
I250
sa(dp510
g5
(F0.392
F0.488
F0.575
I296
I4
tp511
sg7
F4511.317628145218
sg8
I1000
sg9
I251
sa(dp512
g5
(F0.407
F0.472
F0.598
I281
I3
tp513
sg7
F4531.391775131226
sg8
I1000
sg9
I252
sa(dp514
g5
(F0.39
F0.527
F0.581
I283
I1
tp515
sg7
F4547.507241010666
sg8
I1000
sg9
I253
sa(dp516
g5
(F0.391
F0.462
F0.592
I299
I2
tp517
sg7
F4565.331604003906
sg8
I1000
sg9
I254
sa(dp518
g5
(F0.399
F0.476
F0.597
I282
I2
tp519
sg7
F4582.851876974106
sg8
I1000
sg9
I255
sa(dp520
g5
(F0.383
F0.475
F0.584
I284
I1
tp521
sg7
F4600.130438089371
sg8
I1000
sg9
I256
sa(dp522
g5
(F0.408
F0.498
F0.576
I294
I1
tp523
sg7
F4616.86058306694
sg8
I1000
sg9
I257
sa(dp524
g5
(F0.387
F0.458
F0.592
I293
I1
tp525
sg7
F4633.649458169937
sg8
I1000
sg9
I258
sa(dp526
g5
(F0.377
F0.493
F0.591
I296
I0
tp527
sg7
F4652.491461992264
sg8
I1000
sg9
I259
sa(dp528
g5
(F0.401
F0.446
F0.579
I294
I2
tp529
sg7
F4670.027677059174
sg8
I1000
sg9
I260
sa(dp530
g5
(F0.413
F0.484
F0.594
I319
I1
tp531
sg7
F4689.633720159531
sg8
I1000
sg9
I261
sa(dp532
g5
(F0.394
F0.497
F0.579
I301
I1
tp533
sg7
F4707.7198531627655
sg8
I1000
sg9
I262
sa(dp534
g5
(F0.389
F0.5
F0.571
I275
I1
tp535
sg7
F4725.781080007553
sg8
I1000
sg9
I263
sa(dp536
g5
(F0.369
F0.436
F0.566
I299
I1
tp537
sg7
F4740.986950159073
sg8
I1000
sg9
I264
sa(dp538
g5
(F0.368
F0.466
F0.592
I302
I0
tp539
sg7
F4758.72795009613
sg8
I1000
sg9
I265
sa(dp540
g5
(F0.378
F0.452
F0.593
I315
I2
tp541
sg7
F4775.312566041946
sg8
I1000
sg9
I266
sa(dp542
g5
(F0.388
F0.472
F0.586
I317
I1
tp543
sg7
F4794.7704911231995
sg8
I1000
sg9
I267
sa(dp544
g5
(F0.409
F0.468
F0.589
I314
I1
tp545
sg7
F4815.032516956329
sg8
I1000
sg9
I268
sa(dp546
g5
(F0.412
F0.498
F0.591
I311
I1
tp547
sg7
F4835.196330070496
sg8
I1000
sg9
I269
sa(dp548
g5
(F0.394
F0.475
F0.591
I333
I1
tp549
sg7
F4854.246698141098
sg8
I1000
sg9
I270
sa(dp550
g5
(F0.398
F0.453
F0.578
I295
I0
tp551
sg7
F4875.728588104248
sg8
I1000
sg9
I271
sa(dp552
g5
(F0.378
F0.428
F0.585
I287
I2
tp553
sg7
F4893.001465082169
sg8
I1000
sg9
I272
sa(dp554
g5
(F0.407
F0.48
F0.58
I305
I1
tp555
sg7
F4911.031942129135
sg8
I1000
sg9
I273
sa(dp556
g5
(F0.387
F0.455
F0.555
I280
I1
tp557
sg7
F4931.760031938553
sg8
I1000
sg9
I274
sa(dp558
g5
(F0.397
F0.504
F0.57
I293
I1
tp559
sg7
F4948.375096082687
sg8
I1000
sg9
I275
sa(dp560
g5
(F0.411
F0.493
F0.581
I281
I1
tp561
sg7
F4965.7620170116425
sg8
I1000
sg9
I276
sa(dp562
g5
(F0.405
F0.452
F0.609
I297
I1
tp563
sg7
F4981.7807331085205
sg8
I1000
sg9
I277
sa(dp564
g5
(F0.387
F0.481
F0.583
I316
I1
tp565
sg7
F5000.41628909111
sg8
I1000
sg9
I278
sa(dp566
g5
(F0.394
F0.495
F0.575
I308
I2
tp567
sg7
F5019.4957439899445
sg8
I1000
sg9
I279
sa(dp568
g5
(F0.398
F0.45
F0.6
I307
I2
tp569
sg7
F5038.369433164597
sg8
I1000
sg9
I280
sa(dp570
g5
(F0.405
F0.473
F0.571
I305
I2
tp571
sg7
F5059.328456163406
sg8
I1000
sg9
I281
sa(dp572
g5
(F0.403
F0.443
F0.583
I302
I1
tp573
sg7
F5078.56237411499
sg8
I1000
sg9
I282
sa(dp574
g5
(F0.392
F0.484
F0.596
I286
I1
tp575
sg7
F5097.033730983734
sg8
I1000
sg9
I283
sa(dp576
g5
(F0.399
F0.469
F0.576
I292
I1
tp577
sg7
F5113.415094137192
sg8
I1000
sg9
I284
sa(dp578
g5
(F0.391
F0.458
F0.565
I260
I1
tp579
sg7
F5130.834449052811
sg8
I1000
sg9
I285
sa(dp580
g5
(F0.39
F0.478
F0.564
I278
I2
tp581
sg7
F5146.320373058319
sg8
I1000
sg9
I286
sa(dp582
g5
(F0.385
F0.457
F0.607
I304
I2
tp583
sg7
F5161.849018096924
sg8
I1000
sg9
I287
sa(dp584
g5
(F0.391
F0.475
F0.584
I283
I1
tp585
sg7
F5180.837069034576
sg8
I1000
sg9
I288
sa(dp586
g5
(F0.395
F0.455
F0.568
I274
I3
tp587
sg7
F5198.719758987427
sg8
I1000
sg9
I289
sa(dp588
g5
(F0.413
F0.476
F0.599
I284
I2
tp589
sg7
F5215.042309045792
sg8
I1000
sg9
I290
sa(dp590
g5
(F0.409
F0.458
F0.58
I317
I2
tp591
sg7
F5232.045684099197
sg8
I1000
sg9
I291
sa(dp592
g5
(F0.398
F0.457
F0.582
I273
I1
tp593
sg7
F5253.103274106979
sg8
I1000
sg9
I292
sa(dp594
g5
(F0.403
F0.42
F0.61
I277
I1
tp595
sg7
F5268.206522941589
sg8
I1000
sg9
I293
sa(dp596
g5
(F0.395
F0.494
F0.586
I290
I1
tp597
sg7
F5283.525186061859
sg8
I1000
sg9
I294
sa(dp598
g5
(F0.397
F0.464
F0.591
I298
I1
tp599
sg7
F5300.552639961243
sg8
I1000
sg9
I295
sa(dp600
g5
(F0.395
F0.46
F0.594
I304
I1
tp601
sg7
F5321.145473003387
sg8
I1000
sg9
I296
sa(dp602
g5
(F0.4
F0.491
F0.577
I299
I2
tp603
sg7
F5340.95060801506
sg8
I1000
sg9
I297
sa(dp604
g5
(F0.414
F0.447
F0.623
I325
I2
tp605
sg7
F5359.6190321445465
sg8
I1000
sg9
I298
sa(dp606
g5
(F0.403
F0.437
F0.596
I304
I1
tp607
sg7
F5382.075796127319
sg8
I1000
sg9
I299
sa(dp608
g5
(F0.41
F0.505
F0.568
I300
I2
tp609
sg7
F5400.5392479896545
sg8
I1000
sg9
I300
sa(dp610
g5
(F0.386
F0.493
F0.574
I283
I1
tp611
sg7
F5418.952427148819
sg8
I1000
sg9
I301
sa(dp612
g5
(F0.401
F0.479
F0.59
I305
I0
tp613
sg7
F5434.934904098511
sg8
I1000
sg9
I302
sa(dp614
g5
(F0.395
F0.462
F0.562
I315
I1
tp615
sg7
F5451.237596035004
sg8
I1000
sg9
I303
sa(dp616
g5
(F0.393
F0.47
F0.566
I316
I2
tp617
sg7
F5471.5527780056
sg8
I1000
sg9
I304
sa(dp618
g5
(F0.387
F0.486
F0.583
I292
I1
tp619
sg7
F5490.771661996841
sg8
I1000
sg9
I305
sa(dp620
g5
(F0.389
F0.45
F0.584
I278
I1
tp621
sg7
F5507.420911073685
sg8
I1000
sg9
I306
sa(dp622
g5
(F0.391
F0.419
F0.579
I285
I1
tp623
sg7
F5523.440633058548
sg8
I1000
sg9
I307
sa(dp624
g5
(F0.41
F0.486
F0.601
I285
I1
tp625
sg7
F5541.711856126785
sg8
I1000
sg9
I308
sa(dp626
g5
(F0.41
F0.475
F0.595
I292
I1
tp627
sg7
F5557.799599170685
sg8
I1000
sg9
I309
sa(dp628
g5
(F0.405
F0.478
F0.573
I299
I3
tp629
sg7
F5574.412942171097
sg8
I1000
sg9
I310
sa(dp630
g5
(F0.385
F0.458
F0.581
I286
I4
tp631
sg7
F5595.963183164597
sg8
I1000
sg9
I311
sa(dp632
g5
(F0.404
F0.475
F0.585
I281
I0
tp633
sg7
F5614.814298152924
sg8
I1000
sg9
I312
sa(dp634
g5
(F0.417
F0.456
F0.561
I288
I2
tp635
sg7
F5633.011266946793
sg8
I1000
sg9
I313
sa(dp636
g5
(F0.391
F0.436
F0.582
I297
I1
tp637
sg7
F5649.067393064499
sg8
I1000
sg9
I314
sa(dp638
g5
(F0.397
F0.449
F0.587
I280
I3
tp639
sg7
F5667.260879993439
sg8
I1000
sg9
I315
sa(dp640
g5
(F0.395
F0.507
F0.584
I292
I3
tp641
sg7
F5682.786834001541
sg8
I1000
sg9
I316
sa(dp642
g5
(F0.394
F0.476
F0.574
I321
I7
tp643
sg7
F5700.21738409996
sg8
I1000
sg9
I317
sa(dp644
g5
(F0.406
F0.462
F0.589
I328
I3
tp645
sg7
F5718.521828174591
sg8
I1000
sg9
I318
sa(dp646
g5
(F0.398
F0.453
F0.573
I289
I3
tp647
sg7
F5740.46830701828
sg8
I1000
sg9
I319
sa(dp648
g5
(F0.387
F0.46
F0.568
I301
I4
tp649
sg7
F5757.749884128571
sg8
I1000
sg9
I320
sa(dp650
g5
(F0.399
F0.47
F0.584
I315
I2
tp651
sg7
F5775.376048088074
sg8
I1000
sg9
I321
sa(dp652
g5
(F0.396
F0.468
F0.57
I325
I1
tp653
sg7
F5795.477581977844
sg8
I1000
sg9
I322
sa(dp654
g5
(F0.407
F0.49
F0.58
I301
I1
tp655
sg7
F5816.869792938232
sg8
I1000
sg9
I323
sa(dp656
g5
(F0.364
F0.507
F0.548
I289
I1
tp657
sg7
F5834.883478164673
sg8
I1000
sg9
I324
sa(dp658
g5
(F0.406
F0.509
F0.565
I299
I2
tp659
sg7
F5852.153916120529
sg8
I1000
sg9
I325
sa(dp660
g5
(F0.404
F0.473
F0.583
I318
I2
tp661
sg7
F5873.603714942932
sg8
I1000
sg9
I326
sa(dp662
g5
(F0.416
F0.47
F0.564
I295
I1
tp663
sg7
F5893.991747140884
sg8
I1000
sg9
I327
sa(dp664
g5
(F0.416
F0.468
F0.59
I300
I3
tp665
sg7
F5912.086357116699
sg8
I1000
sg9
I328
sa(dp666
g5
(F0.395
F0.436
F0.577
I325
I2
tp667
sg7
F5930.463009119034
sg8
I1000
sg9
I329
sa(dp668
g5
(F0.412
F0.478
F0.571
I314
I1
tp669
sg7
F5953.460039138794
sg8
I1000
sg9
I330
sa(dp670
g5
(F0.388
F0.425
F0.554
I322
I1
tp671
sg7
F5972.59761595726
sg8
I1000
sg9
I331
sa(dp672
g5
(F0.393
F0.465
F0.555
I300
I1
tp673
sg7
F5993.722993135452
sg8
I1000
sg9
I332
sa(dp674
g5
(F0.406
F0.501
F0.572
I305
I1
tp675
sg7
F6012.630705118179
sg8
I1000
sg9
I333
sa(dp676
g5
(F0.367
F0.467
F0.56
I294
I1
tp677
sg7
F6032.163745164871
sg8
I1000
sg9
I334
sa(dp678
g5
(F0.397
F0.486
F0.579
I293
I3
tp679
sg7
F6049.992033958435
sg8
I1000
sg9
I335
sa(dp680
g5
(F0.394
F0.461
F0.576
I270
I2
tp681
sg7
F6067.903015136719
sg8
I1000
sg9
I336
sa(dp682
g5
(F0.389
F0.465
F0.563
I275
I1
tp683
sg7
F6082.209479093552
sg8
I1000
sg9
I337
sa(dp684
g5
(F0.404
F0.497
F0.563
I291
I1
tp685
sg7
F6099.028857946396
sg8
I1000
sg9
I338
sa(dp686
g5
(F0.409
F0.457
F0.567
I299
I2
tp687
sg7
F6115.262978076935
sg8
I1000
sg9
I339
sa(dp688
g5
(F0.392
F0.488
F0.56
I278
I1
tp689
sg7
F6134.32128405571
sg8
I1000
sg9
I340
sa(dp690
g5
(F0.389
F0.509
F0.575
I271
I2
tp691
sg7
F6149.685258150101
sg8
I1000
sg9
I341
sa(dp692
g5
(F0.385
F0.519
F0.579
I288
I1
tp693
sg7
F6164.181090116501
sg8
I1000
sg9
I342
sa(dp694
g5
(F0.407
F0.492
F0.6
I284
I0
tp695
sg7
F6181.379464149475
sg8
I1000
sg9
I343
sa(dp696
g5
(F0.394
F0.47
F0.603
I287
I2
tp697
sg7
F6197.499497175217
sg8
I1000
sg9
I344
sa(dp698
g5
(F0.397
F0.492
F0.603
I269
I2
tp699
sg7
F6213.969512939453
sg8
I1000
sg9
I345
sa(dp700
g5
(F0.397
F0.461
F0.623
I298
I1
tp701
sg7
F6228.7875871658325
sg8
I1000
sg9
I346
sa(dp702
g5
(F0.395
F0.485
F0.581
I286
I4
tp703
sg7
F6246.2347021102905
sg8
I1000
sg9
I347
sa(dp704
g5
(F0.43
F0.488
F0.588
I263
I1
tp705
sg7
F6264.395805120468
sg8
I1000
sg9
I348
sa(dp706
g5
(F0.403
F0.441
F0.591
I285
I2
tp707
sg7
F6279.306733131409
sg8
I1000
sg9
I349
sa(dp708
g5
(F0.394
F0.516
F0.615
I286
I0
tp709
sg7
F6296.497737169266
sg8
I1000
sg9
I350
sa(dp710
g5
(F0.404
F0.477
F0.595
I280
I2
tp711
sg7
F6314.093048095703
sg8
I1000
sg9
I351
sa(dp712
g5
(F0.398
F0.488
F0.594
I310
I3
tp713
sg7
F6330.845180034637
sg8
I1000
sg9
I352
sa(dp714
g5
(F0.399
F0.451
F0.603
I304
I1
tp715
sg7
F6351.489295005798
sg8
I1000
sg9
I353
sa(dp716
g5
(F0.4
F0.443
F0.588
I327
I2
tp717
sg7
F6371.286051034927
sg8
I1000
sg9
I354
sa(dp718
g5
(F0.383
F0.488
F0.576
I327
I1
tp719
sg7
F6394.725072145462
sg8
I1000
sg9
I355
sa(dp720
g5
(F0.4
F0.456
F0.581
I331
I1
tp721
sg7
F6415.599774122238
sg8
I1000
sg9
I356
sa(dp722
g5
(F0.388
F0.481
F0.577
I314
I2
tp723
sg7
F6439.215852975845
sg8
I1000
sg9
I357
sa(dp724
g5
(F0.406
F0.449
F0.591
I317
I1
tp725
sg7
F6459.13006901741
sg8
I1000
sg9
I358
sa(dp726
g5
(F0.419
F0.457
F0.623
I312
I1
tp727
sg7
F6480.21279001236
sg8
I1000
sg9
I359
sa(dp728
g5
(F0.403
F0.475
F0.611
I291
I2
tp729
sg7
F6499.989052057266
sg8
I1000
sg9
I360
sa(dp730
g5
(F0.394
F0.489
F0.599
I316
I2
tp731
sg7
F6518.31063914299
sg8
I1000
sg9
I361
sa(dp732
g5
(F0.411
F0.466
F0.603
I314
I1
tp733
sg7
F6538.443307161331
sg8
I1000
sg9
I362
sa(dp734
g5
(F0.404
F0.461
F0.585
I299
I2
tp735
sg7
F6557.3354279994965
sg8
I1000
sg9
I363
sa(dp736
g5
(F0.395
F0.491
F0.587
I296
I2
tp737
sg7
F6575.174503087997
sg8
I1000
sg9
I364
sa(dp738
g5
(F0.412
F0.455
F0.565
I302
I3
tp739
sg7
F6592.568588018417
sg8
I1000
sg9
I365
sa(dp740
g5
(F0.399
F0.466
F0.586
I297
I1
tp741
sg7
F6611.685297966003
sg8
I1000
sg9
I366
sa(dp742
g5
(F0.389
F0.494
F0.571
I299
I4
tp743
sg7
F6629.597558021545
sg8
I1000
sg9
I367
sa(dp744
g5
(F0.4
F0.474
F0.587
I300
I1
tp745
sg7
F6649.8913650512695
sg8
I1000
sg9
I368
sa(dp746
g5
(F0.414
F0.473
F0.588
I301
I1
tp747
sg7
F6668.4315819740295
sg8
I1000
sg9
I369
sa(dp748
g5
(F0.398
F0.474
F0.601
I343
I1
tp749
sg7
F6688.553094148636
sg8
I1000
sg9
I370
sa(dp750
g5
(F0.412
F0.505
F0.605
I330
I2
tp751
sg7
F6710.762542963028
sg8
I1000
sg9
I371
sa(dp752
g5
(F0.405
F0.447
F0.585
I293
I1
tp753
sg7
F6732.091058969498
sg8
I1000
sg9
I372
sa(dp754
g5
(F0.397
F0.491
F0.582
I306
I1
tp755
sg7
F6749.094805955887
sg8
I1000
sg9
I373
sa(dp756
g5
(F0.414
F0.475
F0.627
I314
I1
tp757
sg7
F6766.972864151001
sg8
I1000
sg9
I374
sa(dp758
g5
(F0.398
F0.494
F0.614
I324
I1
tp759
sg7
F6786.378666162491
sg8
I1000
sg9
I375
sa(dp760
g5
(F0.428
F0.47
F0.594
I306
I1
tp761
sg7
F6807.544602155685
sg8
I1000
sg9
I376
sa(dp762
g5
(F0.394
F0.486
F0.55
I301
I1
tp763
sg7
F6825.263854026794
sg8
I1000
sg9
I377
sa(dp764
g5
(F0.392
F0.511
F0.602
I294
I1
tp765
sg7
F6844.5108461380005
sg8
I1000
sg9
I378
sa(dp766
g5
(F0.385
F0.447
F0.579
I285
I2
tp767
sg7
F6860.503949165344
sg8
I1000
sg9
I379
sa(dp768
g5
(F0.404
F0.487
F0.597
I271
I2
tp769
sg7
F6875.161237955093
sg8
I1000
sg9
I380
sa(dp770
g5
(F0.408
F0.518
F0.586
I277
I1
tp771
sg7
F6891.113942146301
sg8
I1000
sg9
I381
sa(dp772
g5
(F0.397
F0.462
F0.599
I304
I2
tp773
sg7
F6907.022447109222
sg8
I1000
sg9
I382
sa(dp774
g5
(F0.387
F0.469
F0.609
I290
I0
tp775
sg7
F6926.504892110825
sg8
I1000
sg9
I383
sa(dp776
g5
(F0.397
F0.488
F0.617
I299
I2
tp777
sg7
F6942.853839159012
sg8
I1000
sg9
I384
sa(dp778
g5
(F0.392
F0.47
F0.591
I277
I3
tp779
sg7
F6962.393182039261
sg8
I1000
sg9
I385
sa(dp780
g5
(F0.404
F0.484
F0.591
I296
I3
tp781
sg7
F6980.569014072418
sg8
I1000
sg9
I386
sa(dp782
g5
(F0.408
F0.485
F0.609
I312
I2
tp783
sg7
F6999.136960029602
sg8
I1000
sg9
I387
sa(dp784
g5
(F0.382
F0.461
F0.591
I295
I2
tp785
sg7
F7017.624598026276
sg8
I1000
sg9
I388
sa(dp786
g5
(F0.387
F0.506
F0.565
I289
I1
tp787
sg7
F7032.697669029236
sg8
I1000
sg9
I389
sa(dp788
g5
(F0.406
F0.493
F0.585
I289
I2
tp789
sg7
F7051.269329071045
sg8
I1000
sg9
I390
sa(dp790
g5
(F0.381
F0.491
F0.586
I296
I2
tp791
sg7
F7069.532345056534
sg8
I1000
sg9
I391
sa(dp792
g5
(F0.41
F0.454
F0.595
I277
I0
tp793
sg7
F7087.09273314476
sg8
I1000
sg9
I392
sa(dp794
g5
(F0.401
F0.464
F0.605
I308
I3
tp795
sg7
F7103.123610019684
sg8
I1000
sg9
I393
sa(dp796
g5
(F0.4
F0.428
F0.589
I282
I2
tp797
sg7
F7123.216145992279
sg8
I1000
sg9
I394
sa(dp798
g5
(F0.406
F0.477
F0.591
I294
I4
tp799
sg7
F7140.112694978714
sg8
I1000
sg9
I395
sa(dp800
g5
(F0.384
F0.493
F0.603
I286
I1
tp801
sg7
F7157.145049095154
sg8
I1000
sg9
I396
sa(dp802
g5
(F0.408
F0.474
F0.599
I312
I2
tp803
sg7
F7176.58524107933
sg8
I1000
sg9
I397
sa(dp804
g5
(F0.397
F0.498
F0.588
I302
I3
tp805
sg7
F7197.620064973831
sg8
I1000
sg9
I398
sa(dp806
g5
(F0.408
F0.478
F0.591
I322
I2
tp807
sg7
F7216.517498016357
sg8
I1000
sg9
I399
sa(dp808
g5
(F0.401
F0.455
F0.566
I279
I1
tp809
sg7
F7236.71649813652
sg8
I1000
sg9
I400
sa(dp810
g5
(F0.388
F0.475
F0.578
I301
I2
tp811
sg7
F7254.610519170761
sg8
I1000
sg9
I401
sa(dp812
g5
(F0.394
F0.485
F0.586
I310
I1
tp813
sg7
F7274.694785118103
sg8
I1000
sg9
I402
sa(dp814
g5
(F0.396
F0.454
F0.555
I309
I1
tp815
sg7
F7293.978901147842
sg8
I1000
sg9
I403
sa(dp816
g5
(F0.404
F0.48
F0.575
I315
I0
tp817
sg7
F7313.430696964264
sg8
I1000
sg9
I404
sa(dp818
g5
(F0.409
F0.479
F0.584
I318
I1
tp819
sg7
F7332.955273151398
sg8
I1000
sg9
I405
sa(dp820
g5
(F0.4
F0.484
F0.568
I289
I0
tp821
sg7
F7352.923846960068
sg8
I1000
sg9
I406
sa(dp822
g5
(F0.404
F0.476
F0.576
I293
I2
tp823
sg7
F7369.143397092819
sg8
I1000
sg9
I407
sa(dp824
g5
(F0.406
F0.441
F0.58
I278
I1
tp825
sg7
F7385.189303159714
sg8
I1000
sg9
I408
sa(dp826
g5
(F0.408
F0.528
F0.575
I307
I2
tp827
sg7
F7401.252077102661
sg8
I1000
sg9
I409
sa(dp828
g5
(F0.385
F0.485
F0.577
I287
I2
tp829
sg7
F7419.469174146652
sg8
I1000
sg9
I410
sa(dp830
g5
(F0.39
F0.467
F0.575
I290
I1
tp831
sg7
F7437.151469945908
sg8
I1000
sg9
I411
sa(dp832
g5
(F0.4
F0.477
F0.583
I293
I2
tp833
sg7
F7455.787389993668
sg8
I1000
sg9
I412
sa(dp834
g5
(F0.392
F0.525
F0.593
I275
I1
tp835
sg7
F7474.521598100662
sg8
I1000
sg9
I413
sa(dp836
g5
(F0.411
F0.468
F0.596
I285
I0
tp837
sg7
F7489.414714097977
sg8
I1000
sg9
I414
sa(dp838
g5
(F0.389
F0.476
F0.568
I270
I1
tp839
sg7
F7507.428678035736
sg8
I1000
sg9
I415
sa(dp840
g5
(F0.375
F0.468
F0.55
I285
I2
tp841
sg7
F7521.920824050903
sg8
I1000
sg9
I416
sa(dp842
g5
(F0.401
F0.458
F0.569
I273
I0
tp843
sg7
F7538.781905174255
sg8
I1000
sg9
I417
sa(dp844
g5
(F0.399
F0.468
F0.608
I301
I0
tp845
sg7
F7555.465178012848
sg8
I1000
sg9
I418
sa(dp846
g5
(F0.418
F0.474
F0.617
I307
I3
tp847
sg7
F7574.632351160049
sg8
I1000
sg9
I419
sa(dp848
g5
(F0.402
F0.505
F0.613
I316
I3
tp849
sg7
F7593.923871040344
sg8
I1000
sg9
I420
sa(dp850
g5
(F0.395
F0.481
F0.618
I293
I1
tp851
sg7
F7615.70655298233
sg8
I1000
sg9
I421
sa(dp852
g5
(F0.393
F0.509
F0.604
I305
I2
tp853
sg7
F7635.892753124237
sg8
I1000
sg9
I422
sa(dp854
g5
(F0.392
F0.466
F0.628
I304
I1
tp855
sg7
F7654.07940196991
sg8
I1000
sg9
I423
sa(dp856
g5
(F0.389
F0.463
F0.613
I304
I2
tp857
sg7
F7671.8052480220795
sg8
I1000
sg9
I424
sa(dp858
g5
(F0.396
F0.45
F0.593
I293
I2
tp859
sg7
F7692.141162157059
sg8
I1000
sg9
I425
sa(dp860
g5
(F0.408
F0.443
F0.576
I292
I1
tp861
sg7
F7711.135147094727
sg8
I1000
sg9
I426
sa(dp862
g5
(F0.406
F0.51
F0.607
I294
I1
tp863
sg7
F7729.621850967407
sg8
I1000
sg9
I427
sa(dp864
g5
(F0.405
F0.48
F0.583
I290
I1
tp865
sg7
F7746.543167114258
sg8
I1000
sg9
I428
sa(dp866
g5
(F0.399
F0.483
F0.601
I300
I1
tp867
sg7
F7763.7474999427795
sg8
I1000
sg9
I429
sa(dp868
g5
(F0.393
F0.483
F0.596
I293
I2
tp869
sg7
F7783.969877004623
sg8
I1000
sg9
I430
sa(dp870
g5
(F0.399
F0.48
F0.603
I280
I1
tp871
sg7
F7800.413995027542
sg8
I1000
sg9
I431
sa(dp872
g5
(F0.398
F0.46
F0.604
I309
I1
tp873
sg7
F7816.502800941467
sg8
I1000
sg9
I432
sa(dp874
g5
(F0.391
F0.475
F0.59
I299
I2
tp875
sg7
F7834.792894124985
sg8
I1000
sg9
I433
sa(dp876
g5
(F0.397
F0.452
F0.625
I317
I1
tp877
sg7
F7852.829920053482
sg8
I1000
sg9
I434
sa(dp878
g5
(F0.384
F0.512
F0.605
I294
I2
tp879
sg7
F7873.658987998962
sg8
I1000
sg9
I435
sa(dp880
g5
(F0.363
F0.456
F0.575
I271
I2
tp881
sg7
F7889.864500045776
sg8
I1000
sg9
I436
sa(dp882
g5
(F0.4
F0.481
F0.582
I284
I1
tp883
sg7
F7904.981659173965
sg8
I1000
sg9
I437
sa(dp884
g5
(F0.387
F0.499
F0.603
I276
I0
tp885
sg7
F7922.2842490673065
sg8
I1000
sg9
I438
sa(dp886
g5
(F0.392
F0.48
F0.587
I287
I3
tp887
sg7
F7938.950329065323
sg8
I1000
sg9
I439
sa(dp888
g5
(F0.373
F0.494
F0.59
I296
I2
tp889
sg7
F7956.035341978073
sg8
I1000
sg9
I440
sa(dp890
g5
(F0.376
F0.471
F0.564
I290
I2
tp891
sg7
F7973.42106795311
sg8
I1000
sg9
I441
sa(dp892
g5
(F0.367
F0.467
F0.565
I309
I0
tp893
sg7
F7990.132620096207
sg8
I1000
sg9
I442
sa(dp894
g5
(F0.382
F0.497
F0.588
I309
I1
tp895
sg7
F8008.635046005249
sg8
I1000
sg9
I443
sa(dp896
g5
(F0.379
F0.471
F0.569
I307
I2
tp897
sg7
F8030.206583023071
sg8
I1000
sg9
I444
sa(dp898
g5
(F0.403
F0.492
F0.572
I309
I2
tp899
sg7
F8048.6618530750275
sg8
I1000
sg9
I445
sa(dp900
g5
(F0.395
F0.46
F0.572
I309
I3
tp901
sg7
F8066.9686369895935
sg8
I1000
sg9
I446
sa(dp902
g5
(F0.401
F0.473
F0.565
I290
I3
tp903
sg7
F8084.976783037186
sg8
I1000
sg9
I447
sa(dp904
g5
(F0.381
F0.446
F0.583
I306
I1
tp905
sg7
F8102.775866031647
sg8
I1000
sg9
I448
sa(dp906
g5
(F0.406
F0.468
F0.582
I294
I1
tp907
sg7
F8123.177148103714
sg8
I1000
sg9
I449
sa(dp908
g5
(F0.398
F0.44
F0.566
I293
I1
tp909
sg7
F8141.569985151291
sg8
I1000
sg9
I450
sa(dp910
g5
(F0.38
F0.472
F0.576
I279
I2
tp911
sg7
F8159.329195022583
sg8
I1000
sg9
I451
sa(dp912
g5
(F0.382
F0.48
F0.605
I294
I1
tp913
sg7
F8175.678432941437
sg8
I1000
sg9
I452
sa(dp914
g5
(F0.369
F0.427
F0.578
I283
I1
tp915
sg7
F8193.010833024979
sg8
I1000
sg9
I453
sa(dp916
g5
(F0.379
F0.462
F0.583
I293
I1
tp917
sg7
F8209.569772958755
sg8
I1000
sg9
I454
sa(dp918
g5
(F0.394
F0.497
F0.558
I278
I0
tp919
sg7
F8228.34694814682
sg8
I1000
sg9
I455
sa(dp920
g5
(F0.393
F0.511
F0.568
I269
I1
tp921
sg7
F8244.27874302864
sg8
I1000
sg9
I456
sa(dp922
g5
(F0.391
F0.482
F0.594
I273
I1
tp923
sg7
F8258.181868076324
sg8
I1000
sg9
I457
sa(dp924
g5
(F0.407
F0.472
F0.587
I298
I1
tp925
sg7
F8274.613517045975
sg8
I1000
sg9
I458
sa(dp926
g5
(F0.407
F0.496
F0.599
I286
I2
tp927
sg7
F8292.600811004639
sg8
I1000
sg9
I459
sa(dp928
g5
(F0.412
F0.496
F0.587
I283
I2
tp929
sg7
F8308.003451108932
sg8
I1000
sg9
I460
sa(dp930
g5
(F0.395
F0.491
F0.592
I278
I3
tp931
sg7
F8324.39104294777
sg8
I1000
sg9
I461
sa(dp932
g5
(F0.399
F0.466
F0.593
I290
I1
tp933
sg7
F8341.397861003876
sg8
I1000
sg9
I462
sa(dp934
g5
(F0.391
F0.481
F0.552
I305
I1
tp935
sg7
F8359.565155029297
sg8
I1000
sg9
I463
sa(dp936
g5
(F0.398
F0.437
F0.596
I315
I1
tp937
sg7
F8379.480713129044
sg8
I1000
sg9
I464
sa(dp938
g5
(F0.402
F0.495
F0.592
I308
I1
tp939
sg7
F8398.679607152939
sg8
I1000
sg9
I465
sa(dp940
g5
(F0.393
F0.515
F0.586
I291
I1
tp941
sg7
F8417.189749002457
sg8
I1000
sg9
I466
sa(dp942
g5
(F0.424
F0.483
F0.587
I272
I2
tp943
sg7
F8434.177093029022
sg8
I1000
sg9
I467
sa(dp944
g5
(F0.411
F0.45
F0.594
I289
I1
tp945
sg7
F8449.512195110321
sg8
I1000
sg9
I468
sa(dp946
g5
(F0.386
F0.475
F0.564
I287
I2
tp947
sg7
F8466.983550071716
sg8
I1000
sg9
I469
sa(dp948
g5
(F0.381
F0.503
F0.557
I296
I1
tp949
sg7
F8483.897386074066
sg8
I1000
sg9
I470
sa(dp950
g5
(F0.375
F0.508
F0.578
I276
I1
tp951
sg7
F8503.912444114685
sg8
I1000
sg9
I471
sa(dp952
g5
(F0.399
F0.53
F0.568
I274
I2
tp953
sg7
F8519.507584095001
sg8
I1000
sg9
I472
sa(dp954
g5
(F0.408
F0.468
F0.597
I296
I0
tp955
sg7
F8536.102142095566
sg8
I1000
sg9
I473
sa(dp956
g5
(F0.428
F0.454
F0.615
I288
I0
tp957
sg7
F8554.666885137558
sg8
I1000
sg9
I474
sa(dp958
g5
(F0.396
F0.482
F0.597
I304
I1
tp959
sg7
F8569.850024938583
sg8
I1000
sg9
I475
sa(dp960
g5
(F0.425
F0.466
F0.626
I302
I1
tp961
sg7
F8588.665148973465
sg8
I1000
sg9
I476
sa(dp962
g5
(F0.401
F0.469
F0.617
I289
I2
tp963
sg7
F8605.913916110992
sg8
I1000
sg9
I477
sa(dp964
g5
(F0.411
F0.488
F0.614
I298
I1
tp965
sg7
F8621.727316141129
sg8
I1000
sg9
I478
sa(dp966
g5
(F0.41
F0.513
F0.61
I320
I1
tp967
sg7
F8638.983481168747
sg8
I1000
sg9
I479
sa(dp968
g5
(F0.403
F0.5
F0.619
I304
I1
tp969
sg7
F8659.824888944626
sg8
I1000
sg9
I480
sa(dp970
g5
(F0.403
F0.448
F0.616
I303
I1
tp971
sg7
F8678.131483078003
sg8
I1000
sg9
I481
sa(dp972
g5
(F0.405
F0.457
F0.602
I293
I1
tp973
sg7
F8696.624125957489
sg8
I1000
sg9
I482
sa(dp974
g5
(F0.394
F0.496
F0.588
I288
I1
tp975
sg7
F8712.879904031754
sg8
I1000
sg9
I483
sa(dp976
g5
(F0.409
F0.466
F0.578
I294
I2
tp977
sg7
F8728.357303142548
sg8
I1000
sg9
I484
sa(dp978
g5
(F0.398
F0.493
F0.558
I310
I1
tp979
sg7
F8746.359852075577
sg8
I1000
sg9
I485
sa(dp980
g5
(F0.416
F0.486
F0.588
I312
I1
tp981
sg7
F8766.888431072235
sg8
I1000
sg9
I486
sa(dp982
g5
(F0.399
F0.484
F0.586
I297
I1
tp983
sg7
F8790.67396402359
sg8
I1000
sg9
I487
sa(dp984
g5
(F0.413
F0.478
F0.585
I323
I0
tp985
sg7
F8808.62629699707
sg8
I1000
sg9
I488
sa(dp986
g5
(F0.388
F0.484
F0.595
I312
I0
tp987
sg7
F8828.127163171768
sg8
I1000
sg9
I489
sa(dp988
g5
(F0.4
F0.458
F0.59
I306
I1
tp989
sg7
F8846.473514080048
sg8
I1000
sg9
I490
sa(dp990
g5
(F0.387
F0.515
F0.599
I296
I0
tp991
sg7
F8867.151345014572
sg8
I1000
sg9
I491
sa(dp992
g5
(F0.396
F0.491
F0.602
I309
I1
tp993
sg7
F8885.313420057297
sg8
I1000
sg9
I492
sa(dp994
g5
(F0.423
F0.466
F0.608
I316
I1
tp995
sg7
F8904.225989103317
sg8
I1000
sg9
I493
sa(dp996
g5
(F0.399
F0.496
F0.619
I307
I1
tp997
sg7
F8923.031294107437
sg8
I1000
sg9
I494
sa(dp998
g5
(F0.41
F0.44
F0.629
I314
I1
tp999
sg7
F8942.285983085632
sg8
I1000
sg9
I495
sa(dp1000
g5
(F0.391
F0.488
F0.614
I302
I1
tp1001
sg7
F8960.08556509018
sg8
I1000
sg9
I496
sa(dp1002
g5
(F0.389
F0.487
F0.609
I304
I2
tp1003
sg7
F8976.844378948212
sg8
I1000
sg9
I497
sa(dp1004
g5
(F0.404
F0.465
F0.613
I306
I1
tp1005
sg7
F8994.904773950577
sg8
I1000
sg9
I498
sa(dp1006
g5
(F0.392
F0.47
F0.605
I293
I2
tp1007
sg7
F9012.735006093979
sg8
I1000
sg9
I499
sa(dp1008
g5
(F0.391
F0.453
F0.593
I278
I2
tp1009
sg7
F9028.901546955109
sg8
I1000
sg9
I500
sa(dp1010
g5
(F0.38
F0.472
F0.584
I311
I1
tp1011
sg7
F9045.10221195221
sg8
I1000
sg9
I501
sa(dp1012
g5
(F0.394
F0.483
F0.616
I306
I1
tp1013
sg7
F9065.864523172379
sg8
I1000
sg9
I502
sa(dp1014
g5
(F0.384
F0.473
F0.583
I293
I1
tp1015
sg7
F9083.712327003479
sg8
I1000
sg9
I503
sa(dp1016
g5
(F0.399
F0.487
F0.576
I315
I1
tp1017
sg7
F9100.930753946304
sg8
I1000
sg9
I504
sa(dp1018
g5
(F0.405
F0.498
F0.585
I276
I1
tp1019
sg7
F9120.75689816475
sg8
I1000
sg9
I505
sa(dp1020
g5
(F0.384
F0.436
F0.617
I293
I1
tp1021
sg7
F9136.046667098999
sg8
I1000
sg9
I506
sa(dp1022
g5
(F0.386
F0.442
F0.597
I276
I1
tp1023
sg7
F9153.56572508812
sg8
I1000
sg9
I507
sa(dp1024
g5
(F0.39
F0.497
F0.613
I287
I1
tp1025
sg7
F9169.3249771595
sg8
I1000
sg9
I508
sa(dp1026
g5
(F0.4
F0.479
F0.606
I295
I1
tp1027
sg7
F9188.794136047363
sg8
I1000
sg9
I509
sa(dp1028
g5
(F0.4
F0.471
F0.608
I304
I3
tp1029
sg7
F9207.476794958115
sg8
I1000
sg9
I510
sa(dp1030
g5
(F0.396
F0.462
F0.596
I300
I3
tp1031
sg7
F9227.899294137955
sg8
I1000
sg9
I511
sa(dp1032
g5
(F0.401
F0.52
F0.593
I314
I2
tp1033
sg7
F9247.801263093948
sg8
I1000
sg9
I512
sa(dp1034
g5
(F0.416
F0.461
F0.595
I308
I2
tp1035
sg7
F9268.856516122818
sg8
I1000
sg9
I513
sa(dp1036
g5
(F0.403
F0.489
F0.582
I339
I1
tp1037
sg7
F9290.643166065216
sg8
I1000
sg9
I514
sa(dp1038
g5
(F0.408
F0.483
F0.579
I302
I3
tp1039
sg7
F9313.681750059128
sg8
I1000
sg9
I515
sa(dp1040
g5
(F0.404
F0.462
F0.572
I326
I1
tp1041
sg7
F9331.739634990692
sg8
I1000
sg9
I516
sa(dp1042
g5
(F0.398
F0.445
F0.573
I296
I1
tp1043
sg7
F9352.671210050583
sg8
I1000
sg9
I517
sa(dp1044
g5
(F0.383
F0.458
F0.57
I333
I1
tp1045
sg7
F9371.38129901886
sg8
I1000
sg9
I518
sa(dp1046
g5
(F0.393
F0.456
F0.564
I295
I0
tp1047
sg7
F9393.7748670578
sg8
I1000
sg9
I519
sa(dp1048
g5
(F0.403
F0.461
F0.582
I327
I1
tp1049
sg7
F9412.685827970505
sg8
I1000
sg9
I520
sa(dp1050
g5
(F0.4
F0.434
F0.568
I281
I3
tp1051
sg7
F9435.899131059647
sg8
I1000
sg9
I521
sa(dp1052
g5
(F0.411
F0.459
F0.618
I317
I0
tp1053
sg7
F9452.852859020233
sg8
I1000
sg9
I522
sa(dp1054
g5
(F0.381
F0.429
F0.573
I294
I0
tp1055
sg7
F9476.43959403038
sg8
I1000
sg9
I523
sa(dp1056
g5
(F0.375
F0.474
F0.594
I299
I2
tp1057
sg7
F9493.960433006287
sg8
I1000
sg9
I524
sa(dp1058
g5
(F0.389
F0.437
F0.589
I280
I1
tp1059
sg7
F9513.759315013885
sg8
I1000
sg9
I525
sa(dp1060
g5
(F0.406
F0.468
F0.586
I298
I2
tp1061
sg7
F9530.797235965729
sg8
I1000
sg9
I526
sa(dp1062
g5
(F0.407
F0.474
F0.582
I293
I1
tp1063
sg7
F9548.723901033401
sg8
I1000
sg9
I527
sa(dp1064
g5
(F0.391
F0.455
F0.574
I319
I2
tp1065
sg7
F9566.600010156631
sg8
I1000
sg9
I528
sa(dp1066
g5
(F0.376
F0.479
F0.576
I287
I1
tp1067
sg7
F9588.40496301651
sg8
I1000
sg9
I529
sa(dp1068
g5
(F0.416
F0.464
F0.564
I280
I2
tp1069
sg7
F9605.382995128632
sg8
I1000
sg9
I530
sa(dp1070
g5
(F0.408
F0.477
F0.582
I317
I1
tp1071
sg7
F9619.716227054596
sg8
I1000
sg9
I531
sa(dp1072
g5
(F0.403
F0.478
F0.569
I312
I1
tp1073
sg7
F9641.576424121857
sg8
I1000
sg9
I532
sa(dp1074
g5
(F0.397
F0.454
F0.579
I299
I1
tp1075
sg7
F9661.034548044205
sg8
I1000
sg9
I533
sa(dp1076
g5
(F0.409
F0.453
F0.587
I326
I0
tp1077
sg7
F9679.150104999542
sg8
I1000
sg9
I534
sa(dp1078
g5
(F0.413
F0.473
F0.588
I331
I1
tp1079
sg7
F9703.749127149582
sg8
I1000
sg9
I535
sa(dp1080
g5
(F0.408
F0.484
F0.578
I297
I1
tp1081
sg7
F9726.126384019852
sg8
I1000
sg9
I536
sa(dp1082
g5
(F0.382
F0.45
F0.584
I285
I2
tp1083
sg7
F9745.683599948883
sg8
I1000
sg9
I537
sa(dp1084
g5
(F0.412
F0.458
F0.599
I304
I1
tp1085
sg7
F9763.62413406372
sg8
I1000
sg9
I538
sa(dp1086
g5
(F0.417
F0.458
F0.59
I300
I2
tp1087
sg7
F9780.722743988037
sg8
I1000
sg9
I539
sa(dp1088
g5
(F0.399
F0.468
F0.581
I293
I3
tp1089
sg7
F9798.07429099083
sg8
I1000
sg9
I540
sa(dp1090
g5
(F0.402
F0.456
F0.576
I286
I3
tp1091
sg7
F9815.145890951157
sg8
I1000
sg9
I541
sa(dp1092
g5
(F0.402
F0.469
F0.585
I287
I2
tp1093
sg7
F9832.850569963455
sg8
I1000
sg9
I542
sa(dp1094
g5
(F0.402
F0.43
F0.593
I287
I3
tp1095
sg7
F9848.918339014053
sg8
I1000
sg9
I543
sa(dp1096
g5
(F0.38
F0.475
F0.593
I286
I4
tp1097
sg7
F9865.62154006958
sg8
I1000
sg9
I544
sa(dp1098
g5
(F0.402
F0.465
F0.583
I301
I1
tp1099
sg7
F9882.882307052612
sg8
I1000
sg9
I545
sa(dp1100
g5
(F0.388
F0.459
F0.6
I270
I0
tp1101
sg7
F9900.994761943817
sg8
I1000
sg9
I546
sa(dp1102
g5
(F0.394
F0.482
F0.59
I276
I2
tp1103
sg7
F9916.617067098618
sg8
I1000
sg9
I547
sa(dp1104
g5
(F0.407
F0.488
F0.608
I270
I1
tp1105
sg7
F9934.090975046158
sg8
I1000
sg9
I548
sa(dp1106
g5
(F0.411
F0.518
F0.611
I301
I3
tp1107
sg7
F9949.985808134079
sg8
I1000
sg9
I549
sa(dp1108
g5
(F0.382
F0.458
F0.578
I283
I1
tp1109
sg7
F9967.92429113388
sg8
I1000
sg9
I550
sa(dp1110
g5
(F0.426
F0.503
F0.604
I298
I1
tp1111
sg7
F9984.346666097641
sg8
I1000
sg9
I551
sa(dp1112
g5
(F0.401
F0.468
F0.607
I306
I1
tp1113
sg7
F10000.782267093658
sg8
I1000
sg9
I552
sa(dp1114
g5
(F0.403
F0.489
F0.6
I298
I2
tp1115
sg7
F10019.572762012482
sg8
I1000
sg9
I553
sa(dp1116
g5
(F0.426
F0.467
F0.618
I304
I0
tp1117
sg7
F10035.94054198265
sg8
I1000
sg9
I554
sa(dp1118
g5
(F0.409
F0.467
F0.611
I318
I1
tp1119
sg7
F10053.736279964447
sg8
I1000
sg9
I555
sa(dp1120
g5
(F0.41
F0.484
F0.625
I310
I0
tp1121
sg7
F10074.024842977524
sg8
I1000
sg9
I556
sa(dp1122
g5
(F0.413
F0.477
F0.617
I312
I3
tp1123
sg7
F10092.091982126236
sg8
I1000
sg9
I557
sa(dp1124
g5
(F0.424
F0.464
F0.624
I321
I1
tp1125
sg7
F10111.891602039337
sg8
I1000
sg9
I558
sa(dp1126
g5
(F0.414
F0.496
F0.613
I311
I0
tp1127
sg7
F10132.70545911789
sg8
I1000
sg9
I559
sa(dp1128
g5
(F0.413
F0.461
F0.626
I323
I4
tp1129
sg7
F10153.531442165375
sg8
I1000
sg9
I560
sa(dp1130
g5
(F0.409
F0.464
F0.61
I303
I3
tp1131
sg7
F10173.509348154068
sg8
I1000
sg9
I561
sa(dp1132
g5
(F0.406
F0.479
F0.619
I295
I1
tp1133
sg7
F10190.40955901146
sg8
I1000
sg9
I562
sa(dp1134
g5
(F0.421
F0.452
F0.627
I302
I2
tp1135
sg7
F10207.848312139511
sg8
I1000
sg9
I563
sa(dp1136
g5
(F0.418
F0.462
F0.611
I317
I2
tp1137
sg7
F10226.078237056732
sg8
I1000
sg9
I564
sa(dp1138
g5
(F0.417
F0.488
F0.622
I311
I2
tp1139
sg7
F10246.333487033844
sg8
I1000
sg9
I565
sa(dp1140
g5
(F0.386
F0.52
F0.59
I282
I1
tp1141
sg7
F10265.062113046646
sg8
I1000
sg9
I566
sa(dp1142
g5
(F0.4
F0.474
F0.626
I279
I2
tp1143
sg7
F10281.593220949173
sg8
I1000
sg9
I567
sa(dp1144
g5
(F0.41
F0.456
F0.623
I279
I1
tp1145
sg7
F10296.215234041214
sg8
I1000
sg9
I568
sa(dp1146
g5
(F0.404
F0.477
F0.619
I298
I3
tp1147
sg7
F10313.828714132309
sg8
I1000
sg9
I569
sa(dp1148
g5
(F0.402
F0.495
F0.633
I307
I0
tp1149
sg7
F10331.74633216858
sg8
I1000
sg9
I570
sa(dp1150
g5
(F0.406
F0.508
F0.612
I311
I1
tp1151
sg7
F10351.504801988602
sg8
I1000
sg9
I571
sa(dp1152
g5
(F0.403
F0.495
F0.62
I294
I1
tp1153
sg7
F10372.061784029007
sg8
I1000
sg9
I572
sa(dp1154
g5
(F0.408
F0.449
F0.595
I290
I0
tp1155
sg7
F10388.586130142212
sg8
I1000
sg9
I573
sa(dp1156
g5
(F0.403
F0.475
F0.605
I289
I0
tp1157
sg7
F10406.012793064117
sg8
I1000
sg9
I574
sa(dp1158
g5
(F0.392
F0.474
F0.598
I275
I2
tp1159
sg7
F10423.796350955963
sg8
I1000
sg9
I575
sa(dp1160
g5
(F0.421
F0.501
F0.597
I296
I1
tp1161
sg7
F10438.65059709549
sg8
I1000
sg9
I576
sa(dp1162
g5
(F0.397
F0.483
F0.588
I299
I4
tp1163
sg7
F10457.542232990265
sg8
I1000
sg9
I577
sa(dp1164
g5
(F0.401
F0.478
F0.598
I297
I1
tp1165
sg7
F10475.599724054337
sg8
I1000
sg9
I578
sa(dp1166
g5
(F0.403
F0.449
F0.604
I276
I2
tp1167
sg7
F10493.867182970047
sg8
I1000
sg9
I579
sa(dp1168
g5
(F0.415
F0.475
F0.602
I284
I1
tp1169
sg7
F10510.34186911583
sg8
I1000
sg9
I580
sa(dp1170
g5
(F0.399
F0.456
F0.61
I295
I2
tp1171
sg7
F10528.026779174805
sg8
I1000
sg9
I581
sa(dp1172
g5
(F0.419
F0.492
F0.586
I302
I2
tp1173
sg7
F10544.834051132202
sg8
I1000
sg9
I582
sa(dp1174
g5
(F0.401
F0.482
F0.606
I310
I2
tp1175
sg7
F10560.665941953659
sg8
I1000
sg9
I583
sa(dp1176
g5
(F0.394
F0.457
F0.599
I286
I1
tp1177
sg7
F10580.463806152344
sg8
I1000
sg9
I584
sa(dp1178
g5
(F0.405
F0.439
F0.611
I289
I2
tp1179
sg7
F10596.394134044647
sg8
I1000
sg9
I585
sa(dp1180
g5
(F0.408
F0.484
F0.601
I301
I1
tp1181
sg7
F10613.121632099152
sg8
I1000
sg9
I586
sa(dp1182
g5
(F0.404
F0.48
F0.605
I301
I1
tp1183
sg7
F10630.665570020676
sg8
I1000
sg9
I587
sa(dp1184
g5
(F0.409
F0.501
F0.613
I323
I1
tp1185
sg7
F10649.981831073761
sg8
I1000
sg9
I588
sa(dp1186
g5
(F0.412
F0.449
F0.585
I290
I1
tp1187
sg7
F10669.638056993484
sg8
I1000
sg9
I589
sa(dp1188
g5
(F0.399
F0.49
F0.595
I290
I1
tp1189
sg7
F10687.650864124298
sg8
I1000
sg9
I590
sa(dp1190
g5
(F0.404
F0.484
F0.609
I287
I1
tp1191
sg7
F10704.085451126099
sg8
I1000
sg9
I591
sa(dp1192
g5
(F0.402
F0.471
F0.605
I310
I4
tp1193
sg7
F10722.330163955688
sg8
I1000
sg9
I592
sa(dp1194
g5
(F0.405
F0.493
F0.599
I297
I2
tp1195
sg7
F10739.788156032562
sg8
I1000
sg9
I593
sa(dp1196
g5
(F0.421
F0.501
F0.593
I304
I2
tp1197
sg7
F10756.044372081757
sg8
I1000
sg9
I594
sa(dp1198
g5
(F0.411
F0.503
F0.588
I289
I3
tp1199
sg7
F10774.538109064102
sg8
I1000
sg9
I595
sa(dp1200
g5
(F0.418
F0.509
F0.614
I319
I1
tp1201
sg7
F10792.049890041351
sg8
I1000
sg9
I596
sa(dp1202
g5
(F0.421
F0.447
F0.612
I328
I2
tp1203
sg7
F10811.42465209961
sg8
I1000
sg9
I597
sa(dp1204
g5
(F0.4
F0.476
F0.616
I331
I3
tp1205
sg7
F10834.441334962845
sg8
I1000
sg9
I598
sa(dp1206
g5
(F0.41
F0.496
F0.6
I331
I1
tp1207
sg7
F10855.183887958527
sg8
I1000
sg9
I599
sa(dp1208
g5
(F0.404
F0.468
F0.59
I314
I0
tp1209
sg7
F10877.191406011581
sg8
I1000
sg9
I600
sa(dp1210
g5
(F0.419
F0.503
F0.596
I305
I2
tp1211
sg7
F10895.658869028091
sg8
I1000
sg9
I601
sa(dp1212
g5
(F0.416
F0.451
F0.586
I285
I2
tp1213
sg7
F10914.617969989777
sg8
I1000
sg9
I602
sa(dp1214
g5
(F0.409
F0.45
F0.605
I304
I1
tp1215
sg7
F10932.55027604103
sg8
I1000
sg9
I603
sa(dp1216
g5
(F0.425
F0.442
F0.618
I319
I1
tp1217
sg7
F10951.971254110336
sg8
I1000
sg9
I604
sa(dp1218
g5
(F0.421
F0.509
F0.582
I317
I2
tp1219
sg7
F10972.21022605896
sg8
I1000
sg9
I605
sa(dp1220
g5
(F0.415
F0.475
F0.59
I287
I2
tp1221
sg7
F10990.488475084305
sg8
I1000
sg9
I606
sa(dp1222
g5
(F0.4
F0.481
F0.622
I312
I0
tp1223
sg7
F11006.093278169632
sg8
I1000
sg9
I607
sa(dp1224
g5
(F0.421
F0.471
F0.608
I321
I2
tp1225
sg7
F11022.768872976303
sg8
I1000
sg9
I608
sa(dp1226
g5
(F0.407
F0.491
F0.587
I305
I2
tp1227
sg7
F11044.446275949478
sg8
I1000
sg9
I609
sa(dp1228
g5
(F0.411
F0.551
F0.611
I296
I3
tp1229
sg7
F11062.517343997955
sg8
I1000
sg9
I610
sa(dp1230
g5
(F0.41
F0.47
F0.613
I297
I3
tp1231
sg7
F11079.553866147995
sg8
I1000
sg9
I611
sa(dp1232
g5
(F0.409
F0.505
F0.617
I313
I1
tp1233
sg7
F11096.614568948746
sg8
I1000
sg9
I612
sa(dp1234
g5
(F0.403
F0.496
F0.603
I282
I3
tp1235
sg7
F11114.978446006775
sg8
I1000
sg9
I613
sa(dp1236
g5
(F0.416
F0.465
F0.617
I316
I1
tp1237
sg7
F11132.104427099228
sg8
I1000
sg9
I614
sa(dp1238
g5
(F0.401
F0.439
F0.629
I303
I1
tp1239
sg7
F11155.366609096527
sg8
I1000
sg9
I615
sa(dp1240
g5
(F0.41
F0.5
F0.624
I288
I1
tp1241
sg7
F11173.602154970169
sg8
I1000
sg9
I616
sa(dp1242
g5
(F0.407
F0.494
F0.617
I301
I1
tp1243
sg7
F11190.892035961151
sg8
I1000
sg9
I617
sa(dp1244
g5
(F0.412
F0.467
F0.636
I300
I2
tp1245
sg7
F11209.757949113846
sg8
I1000
sg9
I618
sa(dp1246
g5
(F0.407
F0.488
F0.61
I301
I1
tp1247
sg7
F11227.075402975082
sg8
I1000
sg9
I619
sa(dp1248
g5
(F0.429
F0.486
F0.632
I288
I3
tp1249
sg7
F11246.755642175674
sg8
I1000
sg9
I620
sa(dp1250
g5
(F0.404
F0.463
F0.601
I270
I1
tp1251
sg7
F11263.665882110596
sg8
I1000
sg9
I621
sa(dp1252
g5
(F0.392
F0.457
F0.581
I265
I1
tp1253
sg7
F11279.477448940277
sg8
I1000
sg9
I622
sa(dp1254
g5
(F0.402
F0.484
F0.573
I302
I1
tp1255
sg7
F11294.990383148193
sg8
I1000
sg9
I623
sa(dp1256
g5
(F0.395
F0.499
F0.591
I301
I1
tp1257
sg7
F11316.174731969833
sg8
I1000
sg9
I624
sa(dp1258
g5
(F0.421
F0.454
F0.584
I295
I1
tp1259
sg7
F11334.292917966843
sg8
I1000
sg9
I625
sa(dp1260
g5
(F0.417
F0.493
F0.59
I324
I2
tp1261
sg7
F11353.644830942154
sg8
I1000
sg9
I626
sa(dp1262
g5
(F0.407
F0.492
F0.598
I298
I1
tp1263
sg7
F11372.64487195015
sg8
I1000
sg9
I627
sa(dp1264
g5
(F0.432
F0.446
F0.614
I296
I2
tp1265
sg7
F11391.191395998001
sg8
I1000
sg9
I628
sa(dp1266
g5
(F0.396
F0.468
F0.585
I296
I2
tp1267
sg7
F11408.529759168625
sg8
I1000
sg9
I629
sa(dp1268
g5
(F0.399
F0.488
F0.572
I288
I1
tp1269
sg7
F11426.879649162292
sg8
I1000
sg9
I630
sa(dp1270
g5
(F0.413
F0.49
F0.59
I300
I1
tp1271
sg7
F11445.57633805275
sg8
I1000
sg9
I631
sa(dp1272
g5
(F0.415
F0.443
F0.609
I295
I2
tp1273
sg7
F11464.657418012619
sg8
I1000
sg9
I632
sa(dp1274
g5
(F0.413
F0.464
F0.594
I307
I1
tp1275
sg7
F11482.462910175323
sg8
I1000
sg9
I633
sa(dp1276
g5
(F0.419
F0.447
F0.629
I314
I1
tp1277
sg7
F11501.01728105545
sg8
I1000
sg9
I634
sa(dp1278
g5
(F0.416
F0.479
F0.603
I310
I1
tp1279
sg7
F11523.91741013527
sg8
I1000
sg9
I635
sa(dp1280
g5
(F0.435
F0.462
F0.611
I283
I1
tp1281
sg7
F11543.693602085114
sg8
I1000
sg9
I636
sa(dp1282
g5
(F0.411
F0.458
F0.617
I303
I2
tp1283
sg7
F11559.372303962708
sg8
I1000
sg9
I637
sa(dp1284
g5
(F0.417
F0.463
F0.608
I282
I3
tp1285
sg7
F11577.126501083374
sg8
I1000
sg9
I638
sa(dp1286
g5
(F0.415
F0.472
F0.614
I296
I1
tp1287
sg7
F11594.141307115555
sg8
I1000
sg9
I639
sa(dp1288
g5
(F0.411
F0.491
F0.605
I312
I2
tp1289
sg7
F11613.23084616661
sg8
I1000
sg9
I640
sa(dp1290
g5
(F0.423
F0.455
F0.623
I300
I3
tp1291
sg7
F11634.924747943878
sg8
I1000
sg9
I641
sa(dp1292
g5
(F0.404
F0.439
F0.631
I291
I1
tp1293
sg7
F11653.578102111816
sg8
I1000
sg9
I642
sa(dp1294
g5
(F0.414
F0.482
F0.618
I297
I3
tp1295
sg7
F11669.7196559906
sg8
I1000
sg9
I643
sa(dp1296
g5
(F0.438
F0.465
F0.641
I303
I1
tp1297
sg7
F11689.728825092316
sg8
I1000
sg9
I644
sa(dp1298
g5
(F0.411
F0.533
F0.609
I276
I1
tp1299
sg7
F11708.583357095718
sg8
I1000
sg9
I645
sa(dp1300
g5
(F0.412
F0.438
F0.586
I287
I1
tp1301
sg7
F11724.924549102783
sg8
I1000
sg9
I646
sa(dp1302
g5
(F0.397
F0.458
F0.601
I285
I1
tp1303
sg7
F11743.724964141846
sg8
I1000
sg9
I647
sa(dp1304
g5
(F0.429
F0.506
F0.602
I289
I1
tp1305
sg7
F11760.366109132767
sg8
I1000
sg9
I648
sa(dp1306
g5
(F0.404
F0.482
F0.606
I300
I1
tp1307
sg7
F11778.269907951355
sg8
I1000
sg9
I649
sa(dp1308
g5
(F0.408
F0.486
F0.596
I296
I2
tp1309
sg7
F11793.689589977264
sg8
I1000
sg9
I650
sa(dp1310
g5
(F0.412
F0.506
F0.595
I296
I4
tp1311
sg7
F11813.048429012299
sg8
I1000
sg9
I651
sa(dp1312
g5
(F0.414
F0.465
F0.587
I289
I2
tp1313
sg7
F11832.443719148636
sg8
I1000
sg9
I652
sa(dp1314
g5
(F0.407
F0.445
F0.604
I298
I1
tp1315
sg7
F11851.218490123749
sg8
I1000
sg9
I653
sa(dp1316
g5
(F0.418
F0.474
F0.594
I283
I1
tp1317
sg7
F11868.925744056702
sg8
I1000
sg9
I654
sa(dp1318
g5
(F0.426
F0.499
F0.611
I300
I1
tp1319
sg7
F11886.200423955917
sg8
I1000
sg9
I655
sa(dp1320
g5
(F0.413
F0.433
F0.59
I274
I3
tp1321
sg7
F11902.876585960388
sg8
I1000
sg9
I656
sa(dp1322
g5
(F0.421
F0.468
F0.604
I285
I1
tp1323
sg7
F11916.78566813469
sg8
I1000
sg9
I657
sa(dp1324
g5
(F0.405
F0.468
F0.615
I288
I1
tp1325
sg7
F11933.670360088348
sg8
I1000
sg9
I658
sa(dp1326
g5
(F0.433
F0.448
F0.617
I310
I2
tp1327
sg7
F11951.947291135788
sg8
I1000
sg9
I659
sa(dp1328
g5
(F0.392
F0.472
F0.575
I328
I4
tp1329
sg7
F11971.094331979752
sg8
I1000
sg9
I660
sa(dp1330
g5
(F0.403
F0.496
F0.583
I295
I1
tp1331
sg7
F11992.972157001495
sg8
I1000
sg9
I661
sa(dp1332
g5
(F0.42
F0.437
F0.619
I301
I0
tp1333
sg7
F12013.940003156662
sg8
I1000
sg9
I662
sa(dp1334
g5
(F0.408
F0.469
F0.609
I288
I3
tp1335
sg7
F12032.153730154037
sg8
I1000
sg9
I663
sa(dp1336
g5
(F0.425
F0.459
F0.606
I314
I3
tp1337
sg7
F12048.629445075989
sg8
I1000
sg9
I664
sa(dp1338
g5
(F0.419
F0.453
F0.612
I328
I2
tp1339
sg7
F12070.158911943436
sg8
I1000
sg9
I665
sa(dp1340
g5
(F0.403
F0.491
F0.625
I322
I3
tp1341
sg7
F12091.269835948944
sg8
I1000
sg9
I666
sa(dp1342
g5
(F0.401
F0.504
F0.581
I306
I2
tp1343
sg7
F12111.442509174347
sg8
I1000
sg9
I667
sa(dp1344
g5
(F0.413
F0.48
F0.622
I340
I2
tp1345
sg7
F12131.761778116226
sg8
I1000
sg9
I668
sa(dp1346
g5
(F0.407
F0.479
F0.612
I315
I2
tp1347
sg7
F12154.950315952301
sg8
I1000
sg9
I669
sa(dp1348
g5
(F0.426
F0.458
F0.607
I323
I2
tp1349
sg7
F12175.555369138718
sg8
I1000
sg9
I670
sa(dp1350
g5
(F0.395
F0.447
F0.593
I293
I3
tp1351
sg7
F12196.087110996246
sg8
I1000
sg9
I671
sa(dp1352
g5
(F0.408
F0.429
F0.616
I308
I0
tp1353
sg7
F12215.423974990845
sg8
I1000
sg9
I672
sa(dp1354
g5
(F0.394
F0.487
F0.594
I302
I3
tp1355
sg7
F12234.6484811306
sg8
I1000
sg9
I673
sa(dp1356
g5
(F0.401
F0.465
F0.582
I325
I3
tp1357
sg7
F12254.118071079254
sg8
I1000
sg9
I674
sa(dp1358
g5
(F0.388
F0.449
F0.584
I289
I2
tp1359
sg7
F12275.019075155258
sg8
I1000
sg9
I675
sa(dp1360
g5
(F0.418
F0.463
F0.602
I317
I4
tp1361
sg7
F12291.791172981262
sg8
I1000
sg9
I676
sa(dp1362
g5
(F0.432
F0.506
F0.607
I309
I2
tp1363
sg7
F12311.711473941803
sg8
I1000
sg9
I677
sa(dp1364
g5
(F0.414
F0.456
F0.587
I302
I1
tp1365
sg7
F12332.095652103424
sg8
I1000
sg9
I678
sa(dp1366
g5
(F0.419
F0.466
F0.575
I280
I1
tp1367
sg7
F12351.330780982971
sg8
I1000
sg9
I679
sa(dp1368
g5
(F0.418
F0.479
F0.601
I285
I1
tp1369
sg7
F12369.239331960678
sg8
I1000
sg9
I680
sa(dp1370
g5
(F0.405
F0.483
F0.576
I296
I2
tp1371
sg7
F12385.262243032455
sg8
I1000
sg9
I681
sa(dp1372
g5
(F0.42
F0.454
F0.618
I307
I1
tp1373
sg7
F12404.774568080902
sg8
I1000
sg9
I682
sa(dp1374
g5
(F0.4
F0.441
F0.602
I292
I2
tp1375
sg7
F12425.045891046524
sg8
I1000
sg9
I683
sa(dp1376
g5
(F0.434
F0.449
F0.613
I300
I0
tp1377
sg7
F12442.208253145218
sg8
I1000
sg9
I684
sa(dp1378
g5
(F0.405
F0.515
F0.612
I280
I3
tp1379
sg7
F12458.923992156982
sg8
I1000
sg9
I685
sa(dp1380
g5
(F0.409
F0.429
F0.629
I290
I3
tp1381
sg7
F12475.562345027924
sg8
I1000
sg9
I686
sa(dp1382
g5
(F0.415
F0.497
F0.589
I310
I0
tp1383
sg7
F12493.414504051208
sg8
I1000
sg9
I687
sa(dp1384
g5
(F0.387
F0.471
F0.581
I291
I4
tp1385
sg7
F12510.631440162659
sg8
I1000
sg9
I688
sa(dp1386
g5
(F0.409
F0.461
F0.588
I309
I2
tp1387
sg7
F12526.818915128708
sg8
I1000
sg9
I689
sa(dp1388
g5
(F0.418
F0.477
F0.616
I298
I2
tp1389
sg7
F12546.567131996155
sg8
I1000
sg9
I690
sa(dp1390
g5
(F0.407
F0.446
F0.61
I308
I2
tp1391
sg7
F12563.90656709671
sg8
I1000
sg9
I691
sa(dp1392
g5
(F0.419
F0.445
F0.612
I285
I2
tp1393
sg7
F12581.859925985336
sg8
I1000
sg9
I692
sa(dp1394
g5
(F0.41
F0.445
F0.607
I306
I1
tp1395
sg7
F12597.594676017761
sg8
I1000
sg9
I693
sa(dp1396
g5
(F0.397
F0.489
F0.621
I285
I2
tp1397
sg7
F12615.762921094894
sg8
I1000
sg9
I694
sa(dp1398
g5
(F0.414
F0.486
F0.6
I312
I3
tp1399
sg7
F12631.635290145874
sg8
I1000
sg9
I695
sa(dp1400
g5
(F0.427
F0.497
F0.61
I306
I1
tp1401
sg7
F12651.46740102768
sg8
I1000
sg9
I696
sa(dp1402
g5
(F0.428
F0.419
F0.624
I305
I1
tp1403
sg7
F12669.686769008636
sg8
I1000
sg9
I697
sa(dp1404
g5
(F0.419
F0.465
F0.603
I329
I2
tp1405
sg7
F12688.55434012413
sg8
I1000
sg9
I698
sa(dp1406
g5
(F0.406
F0.458
F0.6
I309
I2
tp1407
sg7
F12709.99959897995
sg8
I1000
sg9
I699
sa(dp1408
g5
(F0.411
F0.499
F0.584
I306
I2
tp1409
sg7
F12728.200898170471
sg8
I1000
sg9
I700
sa(dp1410
g5
(F0.386
F0.443
F0.576
I345
I2
tp1411
sg7
F12748.470453977585
sg8
I1000
sg9
I701
sa(dp1412
g5
(F0.403
F0.46
F0.591
I308
I2
tp1413
sg7
F12772.045722007751
sg8
I1000
sg9
I702
sa(dp1414
g5
(F0.422
F0.466
F0.591
I308
I2
tp1415
sg7
F12790.691605091095
sg8
I1000
sg9
I703
sa(dp1416
g5
(F0.412
F0.471
F0.579
I326
I3
tp1417
sg7
F12809.707111120224
sg8
I1000
sg9
I704
sa(dp1418
g5
(F0.392
F0.464
F0.592
I318
I1
tp1419
sg7
F12828.930207967758
sg8
I1000
sg9
I705
sa(dp1420
g5
(F0.407
F0.473
F0.559
I312
I2
tp1421
sg7
F12849.102681159973
sg8
I1000
sg9
I706
sa(dp1422
g5
(F0.417
F0.476
F0.578
I306
I5
tp1423
sg7
F12868.593526124954
sg8
I1000
sg9
I707
sa(dp1424
g5
(F0.418
F0.452
F0.595
I310
I1
tp1425
sg7
F12887.765431165695
sg8
I1000
sg9
I708
sa(dp1426
g5
(F0.393
F0.476
F0.612
I323
I2
tp1427
sg7
F12907.464525938034
sg8
I1000
sg9
I709
sa(dp1428
g5
(F0.4
F0.462
F0.61
I307
I2
tp1429
sg7
F12926.810407161713
sg8
I1000
sg9
I710
sa(dp1430
g5
(F0.396
F0.479
F0.599
I334
I2
tp1431
sg7
F12947.322410106659
sg8
I1000
sg9
I711
sa(dp1432
g5
(F0.421
F0.45
F0.609
I322
I3
tp1433
sg7
F12970.646780967712
sg8
I1000
sg9
I712
sa(dp1434
g5
(F0.409
F0.502
F0.603
I316
I2
tp1435
sg7
F12989.882711172104
sg8
I1000
sg9
I713
sa(dp1436
g5
(F0.422
F0.439
F0.585
I315
I3
tp1437
sg7
F13009.690305948257
sg8
I1000
sg9
I714
sa(dp1438
g5
(F0.407
F0.451
F0.567
I294
I1
tp1439
sg7
F13027.373578071594
sg8
I1000
sg9
I715
sa(dp1440
g5
(F0.405
F0.466
F0.575
I286
I2
tp1441
sg7
F13046.628859996796
sg8
I1000
sg9
I716
sa(dp1442
g5
(F0.404
F0.468
F0.579
I308
I0
tp1443
sg7
F13064.026098966599
sg8
I1000
sg9
I717
sa(dp1444
g5
(F0.416
F0.506
F0.594
I328
I1
tp1445
sg7
F13082.874560117722
sg8
I1000
sg9
I718
sa(dp1446
g5
(F0.409
F0.447
F0.588
I329
I1
tp1447
sg7
F13105.133881092072
sg8
I1000
sg9
I719
sa(dp1448
g5
(F0.405
F0.475
F0.595
I309
I2
tp1449
sg7
F13126.728997945786
sg8
I1000
sg9
I720
sa(dp1450
g5
(F0.405
F0.477
F0.603
I328
I2
tp1451
sg7
F13144.994966983795
sg8
I1000
sg9
I721
sa(dp1452
g5
(F0.427
F0.475
F0.637
I319
I0
tp1453
sg7
F13168.698359012604
sg8
I1000
sg9
I722
sa(dp1454
g5
(F0.41
F0.49
F0.619
I319
I1
tp1455
sg7
F13190.264495134354
sg8
I1000
sg9
I723
sa(dp1456
g5
(F0.401
F0.48
F0.589
I330
I3
tp1457
sg7
F13211.473008155823
sg8
I1000
sg9
I724
sa(dp1458
g5
(F0.405
F0.456
F0.585
I301
I2
tp1459
sg7
F13232.512299060822
sg8
I1000
sg9
I725
sa(dp1460
g5
(F0.433
F0.466
F0.597
I297
I5
tp1461
sg7
F13252.095064163208
sg8
I1000
sg9
I726
sa(dp1462
g5
(F0.409
F0.488
F0.617
I308
I1
tp1463
sg7
F13270.495715141296
sg8
I1000
sg9
I727
sa(dp1464
g5
(F0.399
F0.44
F0.588
I336
I1
tp1465
sg7
F13288.367624998093
sg8
I1000
sg9
I728
sa(dp1466
g5
(F0.391
F0.438
F0.558
I323
I1
tp1467
sg7
F13309.605626106262
sg8
I1000
sg9
I729
sa(dp1468
g5
(F0.426
F0.504
F0.577
I306
I1
tp1469
sg7
F13332.988214969635
sg8
I1000
sg9
I730
sa(dp1470
g5
(F0.412
F0.476
F0.607
I338
I1
tp1471
sg7
F13351.699607133865
sg8
I1000
sg9
I731
sa(dp1472
g5
(F0.412
F0.473
F0.63
I331
I4
tp1473
sg7
F13372.405645132065
sg8
I1000
sg9
I732
sa(dp1474
g5
(F0.405
F0.473
F0.62
I309
I2
tp1475
sg7
F13392.831707954407
sg8
I1000
sg9
I733
sa(dp1476
g5
(F0.411
F0.418
F0.618
I315
I3
tp1477
sg7
F13411.092493057251
sg8
I1000
sg9
I734
sa(dp1478
g5
(F0.419
F0.487
F0.6
I327
I1
tp1479
sg7
F13431.971802949905
sg8
I1000
sg9
I735
sa(dp1480
g5
(F0.415
F0.488
F0.605
I297
I1
tp1481
sg7
F13452.621915102005
sg8
I1000
sg9
I736
sa(dp1482
g5
(F0.4
F0.48
F0.624
I334
I1
tp1483
sg7
F13472.488583087921
sg8
I1000
sg9
I737
sa(dp1484
g5
(F0.407
F0.466
F0.606
I318
I5
tp1485
sg7
F13493.334428071976
sg8
I1000
sg9
I738
sa(dp1486
g5
(F0.404
F0.506
F0.624
I348
I0
tp1487
sg7
F13512.75153017044
sg8
I1000
sg9
I739
sa(dp1488
g5
(F0.421
F0.485
F0.607
I336
I0
tp1489
sg7
F13535.226317167282
sg8
I1000
sg9
I740
sa(dp1490
g5
(F0.414
F0.48
F0.615
I324
I3
tp1491
sg7
F13556.903655052185
sg8
I1000
sg9
I741
sa(dp1492
g5
(F0.396
F0.462
F0.605
I313
I2
tp1493
sg7
F13576.923738002777
sg8
I1000
sg9
I742
sa(dp1494
g5
(F0.421
F0.486
F0.62
I289
I2
tp1495
sg7
F13597.906291007996
sg8
I1000
sg9
I743
sa(dp1496
g5
(F0.414
F0.485
F0.607
I298
I2
tp1497
sg7
F13613.606925964355
sg8
I1000
sg9
I744
sa(dp1498
g5
(F0.413
F0.476
F0.617
I312
I1
tp1499
sg7
F13633.260132074356
sg8
I1000
sg9
I745
sa(dp1500
g5
(F0.403
F0.462
F0.609
I315
I3
tp1501
sg7
F13653.135183095932
sg8
I1000
sg9
I746
sa(dp1502
g5
(F0.412
F0.467
F0.597
I316
I1
tp1503
sg7
F13673.220535993576
sg8
I1000
sg9
I747
sa(dp1504
g5
(F0.413
F0.459
F0.588
I305
I2
tp1505
sg7
F13691.897056102753
sg8
I1000
sg9
I748
sa(dp1506
g5
(F0.414
F0.441
F0.608
I311
I2
tp1507
sg7
F13710.046684980392
sg8
I1000
sg9
I749
sa(dp1508
g5
(F0.399
F0.439
F0.599
I302
I2
tp1509
sg7
F13727.446627140045
sg8
I1000
sg9
I750
sa(dp1510
g5
(F0.402
F0.437
F0.626
I301
I2
tp1511
sg7
F13745.340964078903
sg8
I1000
sg9
I751
sa(dp1512
g5
(F0.405
F0.495
F0.632
I307
I1
tp1513
sg7
F13762.884521961212
sg8
I1000
sg9
I752
sa(dp1514
g5
(F0.429
F0.482
F0.626
I317
I2
tp1515
sg7
F13782.476725101471
sg8
I1000
sg9
I753
sa(dp1516
g5
(F0.399
F0.475
F0.615
I312
I2
tp1517
sg7
F13803.331733942032
sg8
I1000
sg9
I754
sa(dp1518
g5
(F0.428
F0.458
F0.628
I305
I2
tp1519
sg7
F13820.40620303154
sg8
I1000
sg9
I755
sa(dp1520
g5
(F0.423
F0.482
F0.625
I316
I2
tp1521
sg7
F13837.085715055466
sg8
I1000
sg9
I756
sa(dp1522
g5
(F0.429
F0.503
F0.627
I290
I0
tp1523
sg7
F13856.53083205223
sg8
I1000
sg9
I757
sa(dp1524
g5
(F0.426
F0.495
F0.604
I304
I2
tp1525
sg7
F13872.019749164581
sg8
I1000
sg9
I758
sa(dp1526
g5
(F0.419
F0.5
F0.626
I297
I1
tp1527
sg7
F13890.318916082382
sg8
I1000
sg9
I759
sa(dp1528
g5
(F0.403
F0.481
F0.607
I293
I1
tp1529
sg7
F13908.530734062195
sg8
I1000
sg9
I760
sa(dp1530
g5
(F0.409
F0.523
F0.63
I323
I1
tp1531
sg7
F13927.439196109772
sg8
I1000
sg9
I761
sa(dp1532
g5
(F0.408
F0.498
F0.622
I294
I2
tp1533
sg7
F13946.898339986801
sg8
I1000
sg9
I762
sa(dp1534
g5
(F0.419
F0.448
F0.618
I276
I1
tp1535
sg7
F13964.260564088821
sg8
I1000
sg9
I763
sa(dp1536
g5
(F0.398
F0.49
F0.628
I296
I1
tp1537
sg7
F13980.322975158691
sg8
I1000
sg9
I764
sa(dp1538
g5
(F0.426
F0.456
F0.634
I305
I2
tp1539
sg7
F13996.22218298912
sg8
I1000
sg9
I765
sa(dp1540
g5
(F0.424
F0.487
F0.627
I295
I1
tp1541
sg7
F14014.795195102692
sg8
I1000
sg9
I766
sa(dp1542
g5
(F0.424
F0.463
F0.626
I307
I2
tp1543
sg7
F14032.623249053955
sg8
I1000
sg9
I767
sa(dp1544
g5
(F0.423
F0.488
F0.642
I324
I2
tp1545
sg7
F14050.700623989105
sg8
I1000
sg9
I768
sa(dp1546
g5
(F0.425
F0.472
F0.634
I309
I1
tp1547
sg7
F14074.306962013245
sg8
I1000
sg9
I769
sa(dp1548
g5
(F0.423
F0.472
F0.668
I284
I0
tp1549
sg7
F14093.319957017899
sg8
I1000
sg9
I770
sa(dp1550
g5
(F0.43
F0.459
F0.609
I296
I1
tp1551
sg7
F14109.592573165894
sg8
I1000
sg9
I771
sa(dp1552
g5
(F0.401
F0.533
F0.633
I284
I0
tp1553
sg7
F14128.830206155777
sg8
I1000
sg9
I772
sa(dp1554
g5
(F0.427
F0.468
F0.652
I317
I3
tp1555
sg7
F14145.418787956238
sg8
I1000
sg9
I773
sa(dp1556
g5
(F0.421
F0.472
F0.66
I318
I1
tp1557
sg7
F14166.406989097595
sg8
I1000
sg9
I774
sa(dp1558
g5
(F0.419
F0.531
F0.636
I321
I4
tp1559
sg7
F14185.89684510231
sg8
I1000
sg9
I775
sa(dp1560
g5
(F0.402
F0.445
F0.644
I314
I2
tp1561
sg7
F14207.856982946396
sg8
I1000
sg9
I776
sa(dp1562
g5
(F0.422
F0.479
F0.643
I334
I3
tp1563
sg7
F14226.813389062881
sg8
I1000
sg9
I777
sa(dp1564
g5
(F0.42
F0.462
F0.622
I323
I0
tp1565
sg7
F14249.345690011978
sg8
I1000
sg9
I778
sa(dp1566
g5
(F0.426
F0.461
F0.648
I312
I3
tp1567
sg7
F14269.766158103943
sg8
I1000
sg9
I779
sa(dp1568
g5
(F0.426
F0.485
F0.627
I314
I4
tp1569
sg7
F14290.47018814087
sg8
I1000
sg9
I780
sa(dp1570
g5
(F0.42
F0.446
F0.625
I311
I4
tp1571
sg7
F14310.023264169693
sg8
I1000
sg9
I781
sa(dp1572
g5
(F0.427
F0.467
F0.611
I311
I4
tp1573
sg7
F14332.620887994766
sg8
I1000
sg9
I782
sa(dp1574
g5
(F0.422
F0.486
F0.616
I334
I4
tp1575
sg7
F14352.551481962204
sg8
I1000
sg9
I783
sa(dp1576
g5
(F0.416
F0.459
F0.601
I305
I2
tp1577
sg7
F14374.47259402275
sg8
I1000
sg9
I784
sa(dp1578
g5
(F0.406
F0.495
F0.591
I323
I1
tp1579
sg7
F14395.123371124268
sg8
I1000
sg9
I785
sa(dp1580
g5
(F0.411
F0.449
F0.62
I314
I3
tp1581
sg7
F14415.854769945145
sg8
I1000
sg9
I786
sa(dp1582
g5
(F0.419
F0.457
F0.632
I321
I2
tp1583
sg7
F14434.645084142685
sg8
I1000
sg9
I787
sa(dp1584
g5
(F0.429
F0.485
F0.648
I314
I0
tp1585
sg7
F14455.612941980362
sg8
I1000
sg9
I788
sa(dp1586
g5
(F0.433
F0.478
F0.608
I326
I2
tp1587
sg7
F14475.875658988953
sg8
I1000
sg9
I789
sa(dp1588
g5
(F0.407
F0.474
F0.603
I325
I2
tp1589
sg7
F14496.340638160706
sg8
I1000
sg9
I790
sa(dp1590
g5
(F0.417
F0.473
F0.612
I311
I0
tp1591
sg7
F14517.529065132141
sg8
I1000
sg9
I791
sa(dp1592
g5
(F0.424
F0.489
F0.636
I307
I1
tp1593
sg7
F14536.903094053268
sg8
I1000
sg9
I792
sa(dp1594
g5
(F0.4
F0.483
F0.618
I294
I1
tp1595
sg7
F14555.339468955994
sg8
I1000
sg9
I793
sa(dp1596
g5
(F0.416
F0.452
F0.641
I296
I2
tp1597
sg7
F14572.762032985687
sg8
I1000
sg9
I794
sa(dp1598
g5
(F0.405
F0.465
F0.634
I299
I2
tp1599
sg7
F14591.546065092087
sg8
I1000
sg9
I795
sa(dp1600
g5
(F0.42
F0.459
F0.641
I308
I1
tp1601
sg7
F14608.883502960205
sg8
I1000
sg9
I796
sa(dp1602
g5
(F0.403
F0.51
F0.617
I288
I1
tp1603
sg7
F14627.659259080887
sg8
I1000
sg9
I797
sa(dp1604
g5
(F0.418
F0.474
F0.607
I295
I2
tp1605
sg7
F14645.4576151371
sg8
I1000
sg9
I798
sa(dp1606
g5
(F0.407
F0.461
F0.637
I316
I2
tp1607
sg7
F14662.064382076263
sg8
I1000
sg9
I799
sa(dp1608
g5
(F0.419
F0.493
F0.633
I322
I2
tp1609
sg7
F14680.77656507492
sg8
I1000
sg9
I800
sa(dp1610
g5
(F0.415
F0.47
F0.616
I320
I2
tp1611
sg7
F14699.433627128601
sg8
I1000
sg9
I801
sa(dp1612
g5
(F0.418
F0.471
F0.638
I318
I1
tp1613
sg7
F14719.370491027832
sg8
I1000
sg9
I802
sa(dp1614
g5
(F0.399
F0.476
F0.595
I300
I2
tp1615
sg7
F14739.420500040054
sg8
I1000
sg9
I803
sa(dp1616
g5
(F0.414
F0.451
F0.624
I303
I1
tp1617
sg7
F14756.169563055038
sg8
I1000
sg9
I804
sa(dp1618
g5
(F0.419
F0.499
F0.647
I331
I1
tp1619
sg7
F14775.094516992569
sg8
I1000
sg9
I805
sa(dp1620
g5
(F0.415
F0.47
F0.609
I261
I2
tp1621
sg7
F14796.682739019394
sg8
I1000
sg9
I806
sa(dp1622
g5
(F0.407
F0.48
F0.613
I292
I2
tp1623
sg7
F14810.834668159485
sg8
I1000
sg9
I807
sa(dp1624
g5
(F0.381
F0.484
F0.597
I291
I2
tp1625
sg7
F14828.207565069199
sg8
I1000
sg9
I808
sa(dp1626
g5
(F0.417
F0.49
F0.597
I309
I2
tp1627
sg7
F14845.550759077072
sg8
I1000
sg9
I809
sa(dp1628
g5
(F0.398
F0.467
F0.586
I282
I2
tp1629
sg7
F14865.13538312912
sg8
I1000
sg9
I810
sa(dp1630
g5
(F0.428
F0.522
F0.59
I300
I2
tp1631
sg7
F14882.854947090149
sg8
I1000
sg9
I811
sa(dp1632
g5
(F0.401
F0.475
F0.582
I304
I1
tp1633
sg7
F14903.638894081116
sg8
I1000
sg9
I812
sa(dp1634
g5
(F0.423
F0.511
F0.587
I314
I0
tp1635
sg7
F14921.512130975723
sg8
I1000
sg9
I813
sa(dp1636
g5
(F0.406
F0.442
F0.606
I302
I1
tp1637
sg7
F14941.50807094574
sg8
I1000
sg9
I814
sa(dp1638
g5
(F0.427
F0.471
F0.623
I318
I2
tp1639
sg7
F14961.450879096985
sg8
I1000
sg9
I815
sa(dp1640
g5
(F0.415
F0.445
F0.612
I318
I1
tp1641
sg7
F14980.52479505539
sg8
I1000
sg9
I816
sa(dp1642
g5
(F0.395
F0.439
F0.606
I305
I2
tp1643
sg7
F15001.227895975113
sg8
I1000
sg9
I817
sa(dp1644
g5
(F0.424
F0.482
F0.587
I333
I1
tp1645
sg7
F15020.486624002457
sg8
I1000
sg9
I818
sa(dp1646
g5
(F0.417
F0.463
F0.602
I288
I1
tp1647
sg7
F15042.023797035217
sg8
I1000
sg9
I819
sa(dp1648
g5
(F0.415
F0.47
F0.612
I325
I1
tp1649
sg7
F15059.15099310875
sg8
I1000
sg9
I820
sa(dp1650
g5
(F0.417
F0.477
F0.589
I297
I1
tp1651
sg7
F15080.988780975342
sg8
I1000
sg9
I821
sa(dp1652
g5
(F0.427
F0.478
F0.605
I311
I2
tp1653
sg7
F15097.489904165268
sg8
I1000
sg9
I822
sa(dp1654
g5
(F0.408
F0.471
F0.581
I295
I1
tp1655
sg7
F15116.2005341053
sg8
I1000
sg9
I823
sa(dp1656
g5
(F0.397
F0.498
F0.604
I288
I2
tp1657
sg7
F15135.314794063568
sg8
I1000
sg9
I824
sa(dp1658
g5
(F0.426
F0.48
F0.621
I324
I3
tp1659
sg7
F15151.06615114212
sg8
I1000
sg9
I825
sa(dp1660
g5
(F0.424
F0.47
F0.601
I300
I4
tp1661
sg7
F15172.396445035934
sg8
I1000
sg9
I826
sa(dp1662
g5
(F0.391
F0.458
F0.598
I302
I2
tp1663
sg7
F15189.00455403328
sg8
I1000
sg9
I827
sa(dp1664
g5
(F0.41
F0.447
F0.614
I321
I1
tp1665
sg7
F15208.803498983383
sg8
I1000
sg9
I828
sa(dp1666
g5
(F0.417
F0.466
F0.604
I302
I2
tp1667
sg7
F15226.53433394432
sg8
I1000
sg9
I829
sa(dp1668
g5
(F0.414
F0.498
F0.596
I335
I3
tp1669
sg7
F15245.397989988327
sg8
I1000
sg9
I830
sa(dp1670
g5
(F0.418
F0.463
F0.632
I297
I2
tp1671
sg7
F15266.3938331604
sg8
I1000
sg9
I831
sa(dp1672
g5
(F0.429
F0.493
F0.597
I294
I6
tp1673
sg7
F15285.043110132217
sg8
I1000
sg9
I832
sa(dp1674
g5
(F0.422
F0.457
F0.616
I325
I4
tp1675
sg7
F15302.667030096054
sg8
I1000
sg9
I833
sa(dp1676
g5
(F0.409
F0.443
F0.626
I299
I3
tp1677
sg7
F15324.313012123108
sg8
I1000
sg9
I834
sa(dp1678
g5
(F0.418
F0.507
F0.62
I288
I1
tp1679
sg7
F15341.307155132294
sg8
I1000
sg9
I835
sa(dp1680
g5
(F0.419
F0.487
F0.59
I279
I3
tp1681
sg7
F15357.641119003296
sg8
I1000
sg9
I836
sa(dp1682
g5
(F0.411
F0.447
F0.605
I316
I2
tp1683
sg7
F15372.594161987305
sg8
I1000
sg9
I837
sa(dp1684
g5
(F0.398
F0.45
F0.602
I307
I1
tp1685
sg7
F15393.205587148666
sg8
I1000
sg9
I838
sa(dp1686
g5
(F0.398
F0.476
F0.6
I308
I3
tp1687
sg7
F15411.203747987747
sg8
I1000
sg9
I839
sa(dp1688
g5
(F0.42
F0.462
F0.612
I295
I1
tp1689
sg7
F15429.403640985489
sg8
I1000
sg9
I840
sa(dp1690
g5
(F0.416
F0.497
F0.595
I315
I1
tp1691
sg7
F15446.78821015358
sg8
I1000
sg9
I841
sa(dp1692
g5
(F0.417
F0.44
F0.608
I303
I0
tp1693
sg7
F15468.812013149261
sg8
I1000
sg9
I842
sa(dp1694
g5
(F0.42
F0.47
F0.59
I308
I1
tp1695
sg7
F15488.079264163971
sg8
I1000
sg9
I843
sa(dp1696
g5
(F0.418
F0.446
F0.615
I319
I2
tp1697
sg7
F15508.50321507454
sg8
I1000
sg9
I844
sa(dp1698
g5
(F0.418
F0.487
F0.585
I284
I2
tp1699
sg7
F15527.10513305664
sg8
I1000
sg9
I845
sa(dp1700
g5
(F0.407
F0.45
F0.612
I280
I3
tp1701
sg7
F15543.903207063675
sg8
I1000
sg9
I846
sa(dp1702
g5
(F0.435
F0.478
F0.623
I300
I2
tp1703
sg7
F15561.501868009567
sg8
I1000
sg9
I847
sa(dp1704
g5
(F0.42
F0.49
F0.606
I317
I1
tp1705
sg7
F15581.009211063385
sg8
I1000
sg9
I848
sa(dp1706
g5
(F0.405
F0.47
F0.616
I304
I1
tp1707
sg7
F15601.00159406662
sg8
I1000
sg9
I849
sa(dp1708
g5
(F0.394
F0.453
F0.591
I284
I2
tp1709
sg7
F15619.993251085281
sg8
I1000
sg9
I850
sa(dp1710
g5
(F0.406
F0.46
F0.589
I300
I0
tp1711
sg7
F15636.675812959671
sg8
I1000
sg9
I851
sa(dp1712
g5
(F0.412
F0.491
F0.602
I299
I1
tp1713
sg7
F15655.607625961304
sg8
I1000
sg9
I852
sa(dp1714
g5
(F0.403
F0.447
F0.605
I314
I1
tp1715
sg7
F15675.666836977005
sg8
I1000
sg9
I853
sa(dp1716
g5
(F0.392
F0.512
F0.592
I314
I1
tp1717
sg7
F15699.802726984024
sg8
I1000
sg9
I854
sa(dp1718
g5
(F0.425
F0.495
F0.583
I319
I1
tp1719
sg7
F15718.028980970383
sg8
I1000
sg9
I855
sa(dp1720
g5
(F0.415
F0.478
F0.599
I300
I1
tp1721
sg7
F15740.752048969269
sg8
I1000
sg9
I856
sa(dp1722
g5
(F0.423
F0.48
F0.597
I326
I1
tp1723
sg7
F15757.33249616623
sg8
I1000
sg9
I857
sa(dp1724
g5
(F0.413
F0.486
F0.591
I311
I2
tp1725
sg7
F15778.987869024277
sg8
I1000
sg9
I858
sa(dp1726
g5
(F0.426
F0.443
F0.61
I328
I2
tp1727
sg7
F15798.971415996552
sg8
I1000
sg9
I859
sa(dp1728
g5
(F0.416
F0.489
F0.621
I329
I2
tp1729
sg7
F15821.637770175934
sg8
I1000
sg9
I860
sa(dp1730
g5
(F0.406
F0.431
F0.647
I319
I1
tp1731
sg7
F15843.54976606369
sg8
I1000
sg9
I861
sa(dp1732
g5
(F0.417
F0.464
F0.638
I328
I1
tp1733
sg7
F15862.267585992813
sg8
I1000
sg9
I862
sa(dp1734
g5
(F0.41
F0.472
F0.653
I315
I1
tp1735
sg7
F15883.437510967255
sg8
I1000
sg9
I863
sa(dp1736
g5
(F0.405
F0.473
F0.632
I326
I1
tp1737
sg7
F15903.742130041122
sg8
I1000
sg9
I864
sa(dp1738
g5
(F0.412
F0.472
F0.647
I317
I3
tp1739
sg7
F15922.492942094803
sg8
I1000
sg9
I865
sa(dp1740
g5
(F0.424
F0.489
F0.618
I308
I1
tp1741
sg7
F15942.149270057678
sg8
I1000
sg9
I866
sa(dp1742
g5
(F0.398
F0.498
F0.622
I300
I1
tp1743
sg7
F15960.487278938293
sg8
I1000
sg9
I867
sa(dp1744
g5
(F0.42
F0.448
F0.618
I314
I2
tp1745
sg7
F15981.915912151337
sg8
I1000
sg9
I868
sa(dp1746
g5
(F0.405
F0.49
F0.628
I304
I3
tp1747
sg7
F16001.629668951035
sg8
I1000
sg9
I869
sa(dp1748
g5
(F0.435
F0.475
F0.669
I314
I1
tp1749
sg7
F16020.772536993027
sg8
I1000
sg9
I870
sa(dp1750
g5
(F0.43
F0.507
F0.638
I317
I1
tp1751
sg7
F16039.99405503273
sg8
I1000
sg9
I871
sa(dp1752
g5
(F0.419
F0.484
F0.629
I307
I2
tp1753
sg7
F16058.971397161484
sg8
I1000
sg9
I872
sa(dp1754
g5
(F0.422
F0.502
F0.612
I302
I1
tp1755
sg7
F16076.047199964523
sg8
I1000
sg9
I873
sa(dp1756
g5
(F0.414
F0.446
F0.618
I308
I1
tp1757
sg7
F16094.614509105682
sg8
I1000
sg9
I874
sa(dp1758
g5
(F0.421
F0.484
F0.597
I328
I1
tp1759
sg7
F16114.336030006409
sg8
I1000
sg9
I875
sa(dp1760
g5
(F0.427
F0.479
F0.62
I304
I1
tp1761
sg7
F16135.372485160828
sg8
I1000
sg9
I876
sa(dp1762
g5
(F0.43
F0.445
F0.59
I307
I1
tp1763
sg7
F16153.914783000946
sg8
I1000
sg9
I877
sa(dp1764
g5
(F0.418
F0.469
F0.614
I294
I2
tp1765
sg7
F16172.264369010925
sg8
I1000
sg9
I878
sa(dp1766
g5
(F0.402
F0.48
F0.623
I313
I1
tp1767
sg7
F16191.194337129593
sg8
I1000
sg9
I879
sa(dp1768
g5
(F0.426
F0.461
F0.608
I318
I1
tp1769
sg7
F16211.129250049591
sg8
I1000
sg9
I880
sa(dp1770
g5
(F0.397
F0.447
F0.594
I299
I1
tp1771
sg7
F16234.1338160038
sg8
I1000
sg9
I881
sa(dp1772
g5
(F0.406
F0.468
F0.614
I322
I1
tp1773
sg7
F16253.378453016281
sg8
I1000
sg9
I882
sa(dp1774
g5
(F0.401
F0.467
F0.616
I315
I2
tp1775
sg7
F16271.967288017273
sg8
I1000
sg9
I883
sa(dp1776
g5
(F0.437
F0.424
F0.627
I306
I3
tp1777
sg7
F16291.277318000793
sg8
I1000
sg9
I884
sa(dp1778
g5
(F0.398
F0.445
F0.593
I300
I1
tp1779
sg7
F16310.701936006546
sg8
I1000
sg9
I885
sa(dp1780
g5
(F0.429
F0.467
F0.616
I321
I2
tp1781
sg7
F16330.263147115707
sg8
I1000
sg9
I886
sa(dp1782
g5
(F0.422
F0.492
F0.591
I295
I1
tp1783
sg7
F16350.656512975693
sg8
I1000
sg9
I887
sa(dp1784
g5
(F0.409
F0.499
F0.612
I312
I1
tp1785
sg7
F16369.25539803505
sg8
I1000
sg9
I888
sa(dp1786
g5
(F0.4
F0.455
F0.625
I306
I1
tp1787
sg7
F16389.54055905342
sg8
I1000
sg9
I889
sa(dp1788
g5
(F0.42
F0.442
F0.633
I311
I1
tp1789
sg7
F16409.301037073135
sg8
I1000
sg9
I890
sa(dp1790
g5
(F0.402
F0.45
F0.637
I297
I0
tp1791
sg7
F16429.740319013596
sg8
I1000
sg9
I891
sa(dp1792
g5
(F0.402
F0.492
F0.617
I292
I1
tp1793
sg7
F16447.02834701538
sg8
I1000
sg9
I892
sa(dp1794
g5
(F0.413
F0.478
F0.626
I302
I2
tp1795
sg7
F16464.067626953125
sg8
I1000
sg9
I893
sa(dp1796
g5
(F0.406
F0.485
F0.608
I304
I2
tp1797
sg7
F16481.76760816574
sg8
I1000
sg9
I894
sa(dp1798
g5
(F0.425
F0.492
F0.59
I329
I1
tp1799
sg7
F16502.126374959946
sg8
I1000
sg9
I895
sa(dp1800
g5
(F0.423
F0.458
F0.615
I300
I3
tp1801
sg7
F16528.268342018127
sg8
I1000
sg9
I896
sa(dp1802
g5
(F0.413
F0.444
F0.623
I294
I2
tp1803
sg7
F16546.724668979645
sg8
I1000
sg9
I897
sa(dp1804
g5
(F0.419
F0.425
F0.645
I291
I2
tp1805
sg7
F16563.470147132874
sg8
I1000
sg9
I898
sa(dp1806
g5
(F0.412
F0.471
F0.62
I325
I1
tp1807
sg7
F16580.963881969452
sg8
I1000
sg9
I899
sa(dp1808
g5
(F0.42
F0.488
F0.61
I320
I1
tp1809
sg7
F16603.59536600113
sg8
I1000
sg9
I900
sa(dp1810
g5
(F0.415
F0.489
F0.62
I304
I1
tp1811
sg7
F16626.12624812126
sg8
I1000
sg9
I901
sa(dp1812
g5
(F0.418
F0.458
F0.608
I303
I1
tp1813
sg7
F16644.248785972595
sg8
I1000
sg9
I902
sa(dp1814
g5
(F0.429
F0.466
F0.628
I300
I1
tp1815
sg7
F16662.671028137207
sg8
I1000
sg9
I903
sa(dp1816
g5
(F0.405
F0.433
F0.614
I288
I0
tp1817
sg7
F16680.108135938644
sg8
I1000
sg9
I904
sa(dp1818
g5
(F0.404
F0.455
F0.636
I290
I1
tp1819
sg7
F16698.762712955475
sg8
I1000
sg9
I905
sa(dp1820
g5
(F0.406
F0.436
F0.614
I300
I2
tp1821
sg7
F16716.294631958008
sg8
I1000
sg9
I906
sa(dp1822
g5
(F0.43
F0.476
F0.648
I312
I0
tp1823
sg7
F16735.525175094604
sg8
I1000
sg9
I907
sa(dp1824
g5
(F0.403
F0.502
F0.61
I300
I1
tp1825
sg7
F16754.273046970367
sg8
I1000
sg9
I908
sa(dp1826
g5
(F0.41
F0.489
F0.618
I301
I0
tp1827
sg7
F16772.035412073135
sg8
I1000
sg9
I909
sa(dp1828
g5
(F0.431
F0.453
F0.614
I338
I2
tp1829
sg7
F16790.18672800064
sg8
I1000
sg9
I910
sa(dp1830
g5
(F0.42
F0.469
F0.602
I313
I1
tp1831
sg7
F16813.99064517021
sg8
I1000
sg9
I911
sa(dp1832
g5
(F0.392
F0.473
F0.581
I311
I2
tp1833
sg7
F16832.248064041138
sg8
I1000
sg9
I912
sa(dp1834
g5
(F0.429
F0.477
F0.626
I317
I1
tp1835
sg7
F16851.885323047638
sg8
I1000
sg9
I913
sa(dp1836
g5
(F0.387
F0.47
F0.61
I295
I2
tp1837
sg7
F16871.14565205574
sg8
I1000
sg9
I914
sa(dp1838
g5
(F0.415
F0.447
F0.63
I307
I1
tp1839
sg7
F16887.761091947556
sg8
I1000
sg9
I915
sa(dp1840
g5
(F0.418
F0.49
F0.623
I291
I1
tp1841
sg7
F16904.80058503151
sg8
I1000
sg9
I916
sa(dp1842
g5
(F0.437
F0.444
F0.606
I286
I2
tp1843
sg7
F16920.731119155884
sg8
I1000
sg9
I917
sa(dp1844
g5
(F0.438
F0.482
F0.646
I296
I2
tp1845
sg7
F16938.473066091537
sg8
I1000
sg9
I918
sa(dp1846
g5
(F0.418
F0.478
F0.641
I297
I0
tp1847
sg7
F16955.900074005127
sg8
I1000
sg9
I919
sa(dp1848
g5
(F0.404
F0.441
F0.616
I312
I1
tp1849
sg7
F16974.33501315117
sg8
I1000
sg9
I920
sa(dp1850
g5
(F0.431
F0.461
F0.622
I322
I2
tp1851
sg7
F16994.026649951935
sg8
I1000
sg9
I921
sa(dp1852
g5
(F0.424
F0.418
F0.626
I329
I1
tp1853
sg7
F17016.797848939896
sg8
I1000
sg9
I922
sa(dp1854
g5
(F0.438
F0.49
F0.629
I312
I2
tp1855
sg7
F17039.02045917511
sg8
I1000
sg9
I923
sa(dp1856
g5
(F0.419
F0.449
F0.619
I340
I2
tp1857
sg7
F17056.490504026413
sg8
I1000
sg9
I924
sa(dp1858
g5
(F0.424
F0.463
F0.606
I297
I1
tp1859
sg7
F17079.34948015213
sg8
I1000
sg9
I925
sa(dp1860
g5
(F0.395
F0.517
F0.601
I298
I1
tp1861
sg7
F17097.1341650486
sg8
I1000
sg9
I926
sa(dp1862
g5
(F0.41
F0.452
F0.614
I317
I1
tp1863
sg7
F17115.221944093704
sg8
I1000
sg9
I927
sa(dp1864
g5
(F0.418
F0.464
F0.606
I319
I1
tp1865
sg7
F17135.20550608635
sg8
I1000
sg9
I928
sa(dp1866
g5
(F0.434
F0.492
F0.647
I307
I1
tp1867
sg7
F17154.35544705391
sg8
I1000
sg9
I929
sa(dp1868
g5
(F0.424
F0.472
F0.602
I312
I2
tp1869
sg7
F17173.521769046783
sg8
I1000
sg9
I930
sa(dp1870
g5
(F0.426
F0.48
F0.61
I313
I2
tp1871
sg7
F17193.136980056763
sg8
I1000
sg9
I931
sa(dp1872
g5
(F0.425
F0.464
F0.624
I325
I2
tp1873
sg7
F17213.080333948135
sg8
I1000
sg9
I932
sa(dp1874
g5
(F0.422
F0.419
F0.649
I333
I3
tp1875
sg7
F17234.959224939346
sg8
I1000
sg9
I933
sa(dp1876
g5
(F0.415
F0.457
F0.616
I331
I4
tp1877
sg7
F17255.27781200409
sg8
I1000
sg9
I934
sa(dp1878
g5
(F0.429
F0.487
F0.631
I337
I2
tp1879
sg7
F17276.537462949753
sg8
I1000
sg9
I935
sa(dp1880
g5
(F0.409
F0.49
F0.651
I333
I0
tp1881
sg7
F17299.058626174927
sg8
I1000
sg9
I936
sa(dp1882
g5
(F0.43
F0.489
F0.643
I338
I2
tp1883
sg7
F17319.740401029587
sg8
I1000
sg9
I937
sa(dp1884
g5
(F0.407
F0.469
F0.635
I314
I3
tp1885
sg7
F17342.399271965027
sg8
I1000
sg9
I938
sa(dp1886
g5
(F0.418
F0.486
F0.628
I347
I2
tp1887
sg7
F17362.032902002335
sg8
I1000
sg9
I939
sa(dp1888
g5
(F0.415
F0.481
F0.624
I307
I1
tp1889
sg7
F17386.69339609146
sg8
I1000
sg9
I940
sa(dp1890
g5
(F0.428
F0.478
F0.644
I287
I2
tp1891
sg7
F17404.997416973114
sg8
I1000
sg9
I941
sa(dp1892
g5
(F0.404
F0.473
F0.631
I317
I1
tp1893
sg7
F17422.33883714676
sg8
I1000
sg9
I942
sa(dp1894
g5
(F0.416
F0.473
F0.647
I334
I2
tp1895
sg7
F17444.668065071106
sg8
I1000
sg9
I943
sa(dp1896
g5
(F0.4
F0.454
F0.606
I328
I4
tp1897
sg7
F17467.151467084885
sg8
I1000
sg9
I944
sa(dp1898
g5
(F0.412
F0.456
F0.637
I289
I1
tp1899
sg7
F17488.51950097084
sg8
I1000
sg9
I945
sa(dp1900
g5
(F0.418
F0.484
F0.639
I301
I2
tp1901
sg7
F17506.515913009644
sg8
I1000
sg9
I946
sa(dp1902
g5
(F0.421
F0.468
F0.61
I284
I2
tp1903
sg7
F17525.059529066086
sg8
I1000
sg9
I947
sa(dp1904
g5
(F0.43
F0.441
F0.643
I286
I1
tp1905
sg7
F17540.8196310997
sg8
I1000
sg9
I948
sa(dp1906
g5
(F0.405
F0.458
F0.646
I289
I5
tp1907
sg7
F17556.860344171524
sg8
I1000
sg9
I949
sa(dp1908
g5
(F0.398
F0.413
F0.644
I282
I2
tp1909
sg7
F17573.972875118256
sg8
I1000
sg9
I950
sa(dp1910
g5
(F0.407
F0.474
F0.61
I289
I2
tp1911
sg7
F17590.84762597084
sg8
I1000
sg9
I951
sa(dp1912
g5
(F0.428
F0.497
F0.634
I306
I1
tp1913
sg7
F17608.113357067108
sg8
I1000
sg9
I952
sa(dp1914
g5
(F0.408
F0.493
F0.621
I295
I3
tp1915
sg7
F17627.141407966614
sg8
I1000
sg9
I953
sa(dp1916
g5
(F0.423
F0.479
F0.633
I318
I1
tp1917
sg7
F17643.998136997223
sg8
I1000
sg9
I954
sa(dp1918
g5
(F0.422
F0.47
F0.634
I324
I4
tp1919
sg7
F17668.01006913185
sg8
I1000
sg9
I955
sa(dp1920
g5
(F0.429
F0.521
F0.622
I299
I3
tp1921
sg7
F17690.15982913971
sg8
I1000
sg9
I956
satp1922
Rp1923
(dp1924
S'log_header'
p1925
I01
sS'header'
p1926
(S'gen'
p1927
S'evals'
p1928
S'hv|spread|igd|frontier#|valid#'
p1929
S'timestamp'
p1930
tp1931
sS'columns_len'
p1932
(lp1933
I3
aI5
aI30
aI9
asS'buffindex'
p1934
I957
sS'chapters'
p1935
ccollections
defaultdict
p1936
(g1
tp1937
Rp1938
sb.