ccopy_reg
_reconstructor
p0
(cdeap.tools.support
Logbook
p1
c__builtin__
list
p2
(lp3
(dp4
S'hv|spread|igd|frontier#|valid#'
p5
(F0.266
F0.517
F0.819
I115
I0
tp6
sS'timestamp'
p7
F2.5188889503479004
sS'evals'
p8
I1000
sS'gen'
p9
I0
sa(dp10
g5
(F0.269
F0.492
F0.774
I172
I0
tp11
sg7
F7.1668407917022705
sg8
I1000
sg9
I1
sa(dp12
g5
(F0.279
F0.472
F0.745
I171
I0
tp13
sg7
F13.546391010284424
sg8
I1000
sg9
I2
sa(dp14
g5
(F0.28
F0.517
F0.718
I218
I0
tp15
sg7
F20.13902497291565
sg8
I1000
sg9
I3
sa(dp16
g5
(F0.289
F0.48
F0.663
I230
I0
tp17
sg7
F28.536784887313843
sg8
I1000
sg9
I4
sa(dp18
g5
(F0.298
F0.487
F0.647
I239
I0
tp19
sg7
F37.968464851379395
sg8
I1000
sg9
I5
sa(dp20
g5
(F0.271
F0.5
F0.609
I267
I0
tp21
sg7
F48.51514387130737
sg8
I1000
sg9
I6
sa(dp22
g5
(F0.294
F0.459
F0.6
I284
I0
tp23
sg7
F61.033466815948486
sg8
I1000
sg9
I7
sa(dp24
g5
(F0.29
F0.507
F0.579
I282
I0
tp25
sg7
F75.82453989982605
sg8
I1000
sg9
I8
sa(dp26
g5
(F0.279
F0.504
F0.553
I285
I0
tp27
sg7
F90.11159586906433
sg8
I1000
sg9
I9
sa(dp28
g5
(F0.308
F0.452
F0.541
I296
I0
tp29
sg7
F106.09271883964539
sg8
I1000
sg9
I10
sa(dp30
g5
(F0.273
F0.494
F0.515
I299
I0
tp31
sg7
F121.86466884613037
sg8
I1000
sg9
I11
sa(dp32
g5
(F0.286
F0.459
F0.52
I320
I0
tp33
sg7
F138.91866779327393
sg8
I1000
sg9
I12
sa(dp34
g5
(F0.28
F0.503
F0.511
I329
I0
tp35
sg7
F157.1454939842224
sg8
I1000
sg9
I13
sa(dp36
g5
(F0.28
F0.486
F0.519
I334
I0
tp37
sg7
F177.87095379829407
sg8
I1000
sg9
I14
sa(dp38
g5
(F0.307
F0.506
F0.513
I356
I0
tp39
sg7
F203.19690489768982
sg8
I1000
sg9
I15
sa(dp40
g5
(F0.281
F0.454
F0.494
I353
I0
tp41
sg7
F226.85377478599548
sg8
I1000
sg9
I16
sa(dp42
g5
(F0.304
F0.466
F0.496
I371
I0
tp43
sg7
F252.88637900352478
sg8
I1000
sg9
I17
sa(dp44
g5
(F0.269
F0.477
F0.465
I363
I0
tp45
sg7
F282.7585108280182
sg8
I1000
sg9
I18
sa(dp46
g5
(F0.297
F0.455
F0.477
I379
I0
tp47
sg7
F310.3528277873993
sg8
I1000
sg9
I19
sa(dp48
g5
(F0.304
F0.47
F0.507
I362
I0
tp49
sg7
F344.46185779571533
sg8
I1000
sg9
I20
sa(dp50
g5
(F0.32
F0.453
F0.478
I372
I0
tp51
sg7
F372.673565864563
sg8
I1000
sg9
I21
sa(dp52
g5
(F0.28
F0.472
F0.459
I401
I0
tp53
sg7
F404.2452218532562
sg8
I1000
sg9
I22
sa(dp54
g5
(F0.275
F0.48
F0.438
I386
I0
tp55
sg7
F441.49467492103577
sg8
I1000
sg9
I23
sa(dp56
g5
(F0.28
F0.408
F0.45
I400
I0
tp57
sg7
F474.7463719844818
sg8
I1000
sg9
I24
sa(dp58
g5
(F0.279
F0.487
F0.436
I403
I0
tp59
sg7
F507.442214012146
sg8
I1000
sg9
I25
sa(dp60
g5
(F0.285
F0.452
F0.436
I376
I0
tp61
sg7
F546.3171558380127
sg8
I1000
sg9
I26
sa(dp62
g5
(F0.289
F0.471
F0.445
I389
I0
tp63
sg7
F580.3797128200531
sg8
I1000
sg9
I27
sa(dp64
g5
(F0.307
F0.446
F0.415
I369
I0
tp65
sg7
F612.0984048843384
sg8
I1000
sg9
I28
sa(dp66
g5
(F0.275
F0.478
F0.42
I377
I0
tp67
sg7
F644.2997357845306
sg8
I1000
sg9
I29
sa(dp68
g5
(F0.292
F0.471
F0.42
I373
I0
tp69
sg7
F678.8919289112091
sg8
I1000
sg9
I30
sa(dp70
g5
(F0.255
F0.447
F0.409
I370
I0
tp71
sg7
F712.3076069355011
sg8
I1000
sg9
I31
sa(dp72
g5
(F0.264
F0.516
F0.437
I372
I0
tp73
sg7
F740.8821198940277
sg8
I1000
sg9
I32
sa(dp74
g5
(F0.291
F0.451
F0.409
I396
I0
tp75
sg7
F771.3144137859344
sg8
I1000
sg9
I33
sa(dp76
g5
(F0.269
F0.465
F0.4
I403
I0
tp77
sg7
F806.4495108127594
sg8
I1000
sg9
I34
sa(dp78
g5
(F0.307
F0.423
F0.41
I402
I0
tp79
sg7
F844.3856868743896
sg8
I1000
sg9
I35
sa(dp80
g5
(F0.26
F0.487
F0.407
I405
I0
tp81
sg7
F881.8727698326111
sg8
I1000
sg9
I36
sa(dp82
g5
(F0.253
F0.447
F0.411
I408
I0
tp83
sg7
F916.0397388935089
sg8
I1000
sg9
I37
sa(dp84
g5
(F0.281
F0.47
F0.388
I389
I0
tp85
sg7
F953.0224189758301
sg8
I1000
sg9
I38
sa(dp86
g5
(F0.272
F0.474
F0.383
I420
I0
tp87
sg7
F988.9593088626862
sg8
I1000
sg9
I39
sa(dp88
g5
(F0.259
F0.488
F0.382
I406
I0
tp89
sg7
F1027.50843501091
sg8
I1000
sg9
I40
sa(dp90
g5
(F0.287
F0.482
F0.376
I370
I0
tp91
sg7
F1068.5880599021912
sg8
I1000
sg9
I41
sa(dp92
g5
(F0.281
F0.469
F0.377
I377
I0
tp93
sg7
F1102.9578709602356
sg8
I1000
sg9
I42
sa(dp94
g5
(F0.289
F0.5
F0.394
I399
I0
tp95
sg7
F1136.818592786789
sg8
I1000
sg9
I43
sa(dp96
g5
(F0.287
F0.489
F0.383
I393
I0
tp97
sg7
F1176.020677804947
sg8
I1000
sg9
I44
sa(dp98
g5
(F0.266
F0.493
F0.361
I397
I0
tp99
sg7
F1214.1082439422607
sg8
I1000
sg9
I45
sa(dp100
g5
(F0.25
F0.484
F0.362
I388
I0
tp101
sg7
F1250.1616878509521
sg8
I1000
sg9
I46
sa(dp102
g5
(F0.287
F0.478
F0.368
I395
I0
tp103
sg7
F1287.7489697933197
sg8
I1000
sg9
I47
sa(dp104
g5
(F0.282
F0.453
F0.366
I383
I0
tp105
sg7
F1324.7037489414215
sg8
I1000
sg9
I48
sa(dp106
g5
(F0.282
F0.484
F0.379
I393
I0
tp107
sg7
F1359.4477949142456
sg8
I1000
sg9
I49
sa(dp108
g5
(F0.297
F0.467
F0.386
I372
I0
tp109
sg7
F1396.616879940033
sg8
I1000
sg9
I50
sa(dp110
g5
(F0.276
F0.479
F0.388
I403
I0
tp111
sg7
F1430.4402859210968
sg8
I1000
sg9
I51
sa(dp112
g5
(F0.298
F0.48
F0.402
I383
I0
tp113
sg7
F1465.039321899414
sg8
I1000
sg9
I52
sa(dp114
g5
(F0.28
F0.474
F0.39
I411
I0
tp115
sg7
F1496.5207579135895
sg8
I1000
sg9
I53
sa(dp116
g5
(F0.293
F0.458
F0.405
I422
I0
tp117
sg7
F1533.9851398468018
sg8
I1000
sg9
I54
sa(dp118
g5
(F0.279
F0.448
F0.425
I424
I0
tp119
sg7
F1572.041762828827
sg8
I1000
sg9
I55
sa(dp120
g5
(F0.263
F0.464
F0.406
I433
I0
tp121
sg7
F1607.8985528945923
sg8
I1000
sg9
I56
sa(dp122
g5
(F0.289
F0.467
F0.4
I410
I0
tp123
sg7
F1653.7802979946136
sg8
I1000
sg9
I57
sa(dp124
g5
(F0.318
F0.453
F0.404
I402
I1
tp125
sg7
F1691.9236698150635
sg8
I1000
sg9
I58
sa(dp126
g5
(F0.289
F0.467
F0.407
I412
I1
tp127
sg7
F1731.1923849582672
sg8
I1000
sg9
I59
sa(dp128
g5
(F0.292
F0.457
F0.422
I399
I1
tp129
sg7
F1767.4192068576813
sg8
I1000
sg9
I60
sa(dp130
g5
(F0.302
F0.485
F0.403
I396
I2
tp131
sg7
F1801.5286779403687
sg8
I1000
sg9
I61
sa(dp132
g5
(F0.311
F0.477
F0.402
I392
I1
tp133
sg7
F1836.6654329299927
sg8
I1000
sg9
I62
sa(dp134
g5
(F0.304
F0.466
F0.416
I412
I0
tp135
sg7
F1871.4704008102417
sg8
I1000
sg9
I63
sa(dp136
g5
(F0.278
F0.481
F0.409
I416
I3
tp137
sg7
F1910.3106038570404
sg8
I1000
sg9
I64
sa(dp138
g5
(F0.299
F0.466
F0.393
I445
I0
tp139
sg7
F1951.9597330093384
sg8
I1000
sg9
I65
sa(dp140
g5
(F0.307
F0.471
F0.394
I410
I0
tp141
sg7
F1999.995677947998
sg8
I1000
sg9
I66
sa(dp142
g5
(F0.287
F0.468
F0.403
I416
I0
tp143
sg7
F2037.3954257965088
sg8
I1000
sg9
I67
sa(dp144
g5
(F0.305
F0.444
F0.395
I403
I1
tp145
sg7
F2079.5557448863983
sg8
I1000
sg9
I68
sa(dp146
g5
(F0.289
F0.457
F0.404
I418
I2
tp147
sg7
F2113.6238679885864
sg8
I1000
sg9
I69
sa(dp148
g5
(F0.265
F0.487
F0.385
I398
I2
tp149
sg7
F2151.6047728061676
sg8
I1000
sg9
I70
sa(dp150
g5
(F0.26
F0.452
F0.39
I403
I3
tp151
sg7
F2190.988123893738
sg8
I1000
sg9
I71
sa(dp152
g5
(F0.292
F0.458
F0.413
I410
I1
tp153
sg7
F2228.947345972061
sg8
I1000
sg9
I72
sa(dp154
g5
(F0.284
F0.452
F0.41
I396
I0
tp155
sg7
F2266.299814939499
sg8
I1000
sg9
I73
sa(dp156
g5
(F0.272
F0.483
F0.405
I405
I1
tp157
sg7
F2300.0847969055176
sg8
I1000
sg9
I74
sa(dp158
g5
(F0.293
F0.448
F0.412
I400
I1
tp159
sg7
F2336.4353988170624
sg8
I1000
sg9
I75
sa(dp160
g5
(F0.304
F0.44
F0.39
I404
I1
tp161
sg7
F2374.973198890686
sg8
I1000
sg9
I76
sa(dp162
g5
(F0.286
F0.455
F0.403
I376
I0
tp163
sg7
F2411.945417881012
sg8
I1000
sg9
I77
sa(dp164
g5
(F0.269
F0.471
F0.422
I383
I0
tp165
sg7
F2443.0515627861023
sg8
I1000
sg9
I78
sa(dp166
g5
(F0.276
F0.459
F0.415
I375
I0
tp167
sg7
F2477.3669879436493
sg8
I1000
sg9
I79
sa(dp168
g5
(F0.283
F0.428
F0.411
I394
I0
tp169
sg7
F2506.989751815796
sg8
I1000
sg9
I80
sa(dp170
g5
(F0.294
F0.493
F0.415
I429
I0
tp171
sg7
F2544.9065749645233
sg8
I1000
sg9
I81
sa(dp172
g5
(F0.294
F0.483
F0.405
I405
I0
tp173
sg7
F2587.0425329208374
sg8
I1000
sg9
I82
sa(dp174
g5
(F0.283
F0.485
F0.397
I408
I0
tp175
sg7
F2624.9122688770294
sg8
I1000
sg9
I83
sa(dp176
g5
(F0.274
F0.513
F0.414
I386
I0
tp177
sg7
F2660.2809369564056
sg8
I1000
sg9
I84
sa(dp178
g5
(F0.322
F0.499
F0.409
I421
I0
tp179
sg7
F2692.5761919021606
sg8
I1000
sg9
I85
sa(dp180
g5
(F0.278
F0.441
F0.433
I400
I1
tp181
sg7
F2733.07360291481
sg8
I1000
sg9
I86
sa(dp182
g5
(F0.296
F0.494
F0.414
I422
I3
tp183
sg7
F2768.357889890671
sg8
I1000
sg9
I87
sa(dp184
g5
(F0.285
F0.467
F0.408
I416
I2
tp185
sg7
F2804.739842891693
sg8
I1000
sg9
I88
sa(dp186
g5
(F0.294
F0.476
F0.415
I414
I3
tp187
sg7
F2844.078682899475
sg8
I1000
sg9
I89
sa(dp188
g5
(F0.283
F0.443
F0.405
I398
I1
tp189
sg7
F2878.209124803543
sg8
I1000
sg9
I90
sa(dp190
g5
(F0.304
F0.505
F0.408
I384
I1
tp191
sg7
F2913.992577791214
sg8
I1000
sg9
I91
sa(dp192
g5
(F0.286
F0.478
F0.424
I436
I3
tp193
sg7
F2945.202013015747
sg8
I1000
sg9
I92
sa(dp194
g5
(F0.287
F0.466
F0.427
I418
I1
tp195
sg7
F2983.983034849167
sg8
I1000
sg9
I93
sa(dp196
g5
(F0.309
F0.422
F0.435
I430
I2
tp197
sg7
F3022.171271800995
sg8
I1000
sg9
I94
sa(dp198
g5
(F0.292
F0.458
F0.434
I409
I1
tp199
sg7
F3059.943350791931
sg8
I1000
sg9
I95
sa(dp200
g5
(F0.308
F0.439
F0.438
I432
I1
tp201
sg7
F3096.778640985489
sg8
I1000
sg9
I96
sa(dp202
g5
(F0.297
F0.467
F0.447
I414
I2
tp203
sg7
F3135.171506881714
sg8
I1000
sg9
I97
sa(dp204
g5
(F0.277
F0.425
F0.445
I409
I1
tp205
sg7
F3173.153163909912
sg8
I1000
sg9
I98
sa(dp206
g5
(F0.302
F0.434
F0.444
I436
I4
tp207
sg7
F3210.414976835251
sg8
I1000
sg9
I99
sa(dp208
g5
(F0.298
F0.431
F0.432
I379
I1
tp209
sg7
F3249.564847946167
sg8
I1000
sg9
I100
sa(dp210
g5
(F0.27
F0.483
F0.424
I391
I2
tp211
sg7
F3280.348083972931
sg8
I1000
sg9
I101
sa(dp212
g5
(F0.292
F0.48
F0.419
I421
I3
tp213
sg7
F3315.2769899368286
sg8
I1000
sg9
I102
sa(dp214
g5
(F0.322
F0.461
F0.402
I438
I2
tp215
sg7
F3356.1182038784027
sg8
I1000
sg9
I103
sa(dp216
g5
(F0.293
F0.482
F0.406
I428
I2
tp217
sg7
F3401.9585309028625
sg8
I1000
sg9
I104
sa(dp218
g5
(F0.306
F0.471
F0.416
I413
I2
tp219
sg7
F3447.3074989318848
sg8
I1000
sg9
I105
sa(dp220
g5
(F0.295
F0.441
F0.414
I389
I0
tp221
sg7
F3486.6079618930817
sg8
I1000
sg9
I106
sa(dp222
g5
(F0.277
F0.478
F0.407
I402
I1
tp223
sg7
F3518.327796936035
sg8
I1000
sg9
I107
sa(dp224
g5
(F0.321
F0.467
F0.421
I429
I1
tp225
sg7
F3554.322532892227
sg8
I1000
sg9
I108
sa(dp226
g5
(F0.311
F0.421
F0.421
I406
I0
tp227
sg7
F3600.457293987274
sg8
I1000
sg9
I109
sa(dp228
g5
(F0.309
F0.464
F0.432
I412
I0
tp229
sg7
F3636.578681945801
sg8
I1000
sg9
I110
sa(dp230
g5
(F0.34
F0.445
F0.436
I410
I0
tp231
sg7
F3677.0325849056244
sg8
I1000
sg9
I111
sa(dp232
g5
(F0.301
F0.454
F0.453
I398
I0
tp233
sg7
F3717.2679028511047
sg8
I1000
sg9
I112
sa(dp234
g5
(F0.29
F0.474
F0.442
I414
I0
tp235
sg7
F3748.45631480217
sg8
I1000
sg9
I113
sa(dp236
g5
(F0.292
F0.452
F0.432
I431
I0
tp237
sg7
F3782.804659843445
sg8
I1000
sg9
I114
sa(dp238
g5
(F0.298
F0.447
F0.435
I435
I0
tp239
sg7
F3823.221272945404
sg8
I1000
sg9
I115
sa(dp240
g5
(F0.306
F0.451
F0.42
I418
I0
tp241
sg7
F3867.2143449783325
sg8
I1000
sg9
I116
sa(dp242
g5
(F0.294
F0.468
F0.414
I425
I0
tp243
sg7
F3904.2412688732147
sg8
I1000
sg9
I117
sa(dp244
g5
(F0.29
F0.484
F0.426
I424
I0
tp245
sg7
F3942.128000974655
sg8
I1000
sg9
I118
sa(dp246
g5
(F0.291
F0.465
F0.415
I401
I0
tp247
sg7
F3981.8773999214172
sg8
I1000
sg9
I119
sa(dp248
g5
(F0.304
F0.471
F0.392
I395
I0
tp249
sg7
F4022.3626267910004
sg8
I1000
sg9
I120
sa(dp250
g5
(F0.307
F0.465
F0.398
I410
I0
tp251
sg7
F4059.526551961899
sg8
I1000
sg9
I121
sa(dp252
g5
(F0.294
F0.465
F0.409
I422
I0
tp253
sg7
F4099.253181934357
sg8
I1000
sg9
I122
sa(dp254
g5
(F0.3
F0.428
F0.408
I403
I0
tp255
sg7
F4141.615566968918
sg8
I1000
sg9
I123
sa(dp256
g5
(F0.3
F0.479
F0.412
I428
I0
tp257
sg7
F4181.344132900238
sg8
I1000
sg9
I124
sa(dp258
g5
(F0.312
F0.441
F0.412
I389
I0
tp259
sg7
F4222.806051015854
sg8
I1000
sg9
I125
sa(dp260
g5
(F0.298
F0.488
F0.411
I407
I0
tp261
sg7
F4257.149933815002
sg8
I1000
sg9
I126
sa(dp262
g5
(F0.284
F0.468
F0.403
I399
I2
tp263
sg7
F4297.00306391716
sg8
I1000
sg9
I127
sa(dp264
g5
(F0.31
F0.468
F0.432
I378
I0
tp265
sg7
F4331.573682785034
sg8
I1000
sg9
I128
sa(dp266
g5
(F0.291
F0.451
F0.421
I418
I1
tp267
sg7
F4363.975225925446
sg8
I1000
sg9
I129
sa(dp268
g5
(F0.307
F0.493
F0.41
I385
I1
tp269
sg7
F4403.233026981354
sg8
I1000
sg9
I130
sa(dp270
g5
(F0.278
F0.479
F0.392
I393
I0
tp271
sg7
F4436.141807794571
sg8
I1000
sg9
I131
sa(dp272
g5
(F0.298
F0.44
F0.427
I413
I0
tp273
sg7
F4474.9768879413605
sg8
I1000
sg9
I132
sa(dp274
g5
(F0.307
F0.465
F0.408
I417
I1
tp275
sg7
F4513.907436847687
sg8
I1000
sg9
I133
sa(dp276
g5
(F0.273
F0.484
F0.405
I396
I0
tp277
sg7
F4550.101847887039
sg8
I1000
sg9
I134
sa(dp278
g5
(F0.31
F0.486
F0.417
I416
I1
tp279
sg7
F4585.187975883484
sg8
I1000
sg9
I135
sa(dp280
g5
(F0.317
F0.469
F0.423
I426
I0
tp281
sg7
F4624.487309932709
sg8
I1000
sg9
I136
sa(dp282
g5
(F0.288
F0.444
F0.408
I422
I0
tp283
sg7
F4669.049580812454
sg8
I1000
sg9
I137
sa(dp284
g5
(F0.297
F0.493
F0.397
I412
I0
tp285
sg7
F4710.580774784088
sg8
I1000
sg9
I138
sa(dp286
g5
(F0.284
F0.449
F0.393
I400
I0
tp287
sg7
F4747.189785003662
sg8
I1000
sg9
I139
sa(dp288
g5
(F0.282
F0.46
F0.395
I383
I0
tp289
sg7
F4779.529224872589
sg8
I1000
sg9
I140
sa(dp290
g5
(F0.306
F0.465
F0.391
I396
I0
tp291
sg7
F4813.8294858932495
sg8
I1000
sg9
I141
sa(dp292
g5
(F0.294
F0.465
F0.388
I403
I0
tp293
sg7
F4852.604064941406
sg8
I1000
sg9
I142
sa(dp294
g5
(F0.298
F0.48
F0.398
I419
I0
tp295
sg7
F4890.999769926071
sg8
I1000
sg9
I143
sa(dp296
g5
(F0.31
F0.452
F0.402
I379
I0
tp297
sg7
F4933.12804889679
sg8
I1000
sg9
I144
sa(dp298
g5
(F0.295
F0.497
F0.397
I387
I0
tp299
sg7
F4970.244836807251
sg8
I1000
sg9
I145
sa(dp300
g5
(F0.309
F0.454
F0.412
I427
I0
tp301
sg7
F5006.333771944046
sg8
I1000
sg9
I146
sa(dp302
g5
(F0.303
F0.477
F0.417
I419
I0
tp303
sg7
F5049.87010383606
sg8
I1000
sg9
I147
sa(dp304
g5
(F0.289
F0.463
F0.418
I437
I0
tp305
sg7
F5090.488662004471
sg8
I1000
sg9
I148
sa(dp306
g5
(F0.346
F0.456
F0.422
I426
I0
tp307
sg7
F5135.2207198143005
sg8
I1000
sg9
I149
sa(dp308
g5
(F0.308
F0.435
F0.433
I398
I0
tp309
sg7
F5177.367281913757
sg8
I1000
sg9
I150
sa(dp310
g5
(F0.284
F0.452
F0.435
I435
I0
tp311
sg7
F5213.570277929306
sg8
I1000
sg9
I151
sa(dp312
g5
(F0.3
F0.444
F0.426
I393
I0
tp313
sg7
F5251.97688293457
sg8
I1000
sg9
I152
sa(dp314
g5
(F0.295
F0.416
F0.417
I419
I0
tp315
sg7
F5289.833154916763
sg8
I1000
sg9
I153
sa(dp316
g5
(F0.329
F0.444
F0.417
I362
I0
tp317
sg7
F5329.780833005905
sg8
I1000
sg9
I154
sa(dp318
g5
(F0.307
F0.496
F0.398
I386
I0
tp319
sg7
F5360.466595888138
sg8
I1000
sg9
I155
sa(dp320
g5
(F0.295
F0.463
F0.398
I425
I0
tp321
sg7
F5394.258770942688
sg8
I1000
sg9
I156
sa(dp322
g5
(F0.319
F0.49
F0.427
I393
I0
tp323
sg7
F5438.2599058151245
sg8
I1000
sg9
I157
sa(dp324
g5
(F0.3
F0.456
F0.427
I418
I0
tp325
sg7
F5478.382995843887
sg8
I1000
sg9
I158
sa(dp326
g5
(F0.307
F0.46
F0.437
I387
I0
tp327
sg7
F5514.385406970978
sg8
I1000
sg9
I159
sa(dp328
g5
(F0.275
F0.481
F0.424
I403
I0
tp329
sg7
F5549.347838878632
sg8
I1000
sg9
I160
sa(dp330
g5
(F0.281
F0.462
F0.426
I406
I0
tp331
sg7
F5587.549265861511
sg8
I1000
sg9
I161
sa(dp332
g5
(F0.322
F0.438
F0.408
I412
I0
tp333
sg7
F5624.0786118507385
sg8
I1000
sg9
I162
sa(dp334
g5
(F0.295
F0.443
F0.422
I401
I0
tp335
sg7
F5664.807247877121
sg8
I1000
sg9
I163
sa(dp336
g5
(F0.319
F0.454
F0.424
I450
I0
tp337
sg7
F5704.418842792511
sg8
I1000
sg9
I164
sa(dp338
g5
(F0.297
F0.455
F0.427
I427
I0
tp339
sg7
F5753.482325792313
sg8
I1000
sg9
I165
sa(dp340
g5
(F0.274
F0.442
F0.417
I408
I0
tp341
sg7
F5795.108510971069
sg8
I1000
sg9
I166
sa(dp342
g5
(F0.303
F0.47
F0.412
I423
I0
tp343
sg7
F5831.458707809448
sg8
I1000
sg9
I167
sa(dp344
g5
(F0.302
F0.469
F0.41
I419
I0
tp345
sg7
F5869.64849281311
sg8
I1000
sg9
I168
sa(dp346
g5
(F0.278
F0.456
F0.419
I402
I0
tp347
sg7
F5908.071043968201
sg8
I1000
sg9
I169
sa(dp348
g5
(F0.286
F0.437
F0.386
I391
I0
tp349
sg7
F5943.175895929337
sg8
I1000
sg9
I170
sa(dp350
g5
(F0.281
F0.459
F0.415
I403
I0
tp351
sg7
F5978.988384008408
sg8
I1000
sg9
I171
sa(dp352
g5
(F0.301
F0.434
F0.405
I404
I0
tp353
sg7
F6012.576325893402
sg8
I1000
sg9
I172
sa(dp354
g5
(F0.303
F0.463
F0.403
I397
I0
tp355
sg7
F6047.634827852249
sg8
I1000
sg9
I173
sa(dp356
g5
(F0.294
F0.456
F0.414
I404
I0
tp357
sg7
F6081.019280910492
sg8
I1000
sg9
I174
sa(dp358
g5
(F0.265
F0.439
F0.414
I372
I0
tp359
sg7
F6115.051854848862
sg8
I1000
sg9
I175
sa(dp360
g5
(F0.287
F0.458
F0.409
I401
I0
tp361
sg7
F6147.038131952286
sg8
I1000
sg9
I176
sa(dp362
g5
(F0.292
F0.488
F0.416
I418
I0
tp363
sg7
F6181.587426900864
sg8
I1000
sg9
I177
sa(dp364
g5
(F0.273
F0.465
F0.382
I368
I0
tp365
sg7
F6218.061182975769
sg8
I1000
sg9
I178
sa(dp366
g5
(F0.277
F0.494
F0.403
I392
I0
tp367
sg7
F6246.003920793533
sg8
I1000
sg9
I179
sa(dp368
g5
(F0.273
F0.492
F0.396
I398
I0
tp369
sg7
F6280.145500898361
sg8
I1000
sg9
I180
sa(dp370
g5
(F0.313
F0.472
F0.402
I391
I0
tp371
sg7
F6313.996498823166
sg8
I1000
sg9
I181
sa(dp372
g5
(F0.295
F0.513
F0.406
I401
I0
tp373
sg7
F6347.160787820816
sg8
I1000
sg9
I182
sa(dp374
g5
(F0.307
F0.479
F0.398
I382
I0
tp375
sg7
F6383.498976945877
sg8
I1000
sg9
I183
sa(dp376
g5
(F0.272
F0.451
F0.398
I372
I0
tp377
sg7
F6417.550190925598
sg8
I1000
sg9
I184
sa(dp378
g5
(F0.273
F0.486
F0.407
I383
I0
tp379
sg7
F6448.153944969177
sg8
I1000
sg9
I185
sa(dp380
g5
(F0.292
F0.488
F0.397
I402
I0
tp381
sg7
F6481.206923007965
sg8
I1000
sg9
I186
sa(dp382
g5
(F0.27
F0.465
F0.39
I392
I0
tp383
sg7
F6513.256984949112
sg8
I1000
sg9
I187
sa(dp384
g5
(F0.261
F0.476
F0.376
I395
I0
tp385
sg7
F6547.6955687999725
sg8
I1000
sg9
I188
sa(dp386
g5
(F0.282
F0.456
F0.388
I399
I0
tp387
sg7
F6581.273392915726
sg8
I1000
sg9
I189
sa(dp388
g5
(F0.281
F0.458
F0.407
I414
I0
tp389
sg7
F6618.238134860992
sg8
I1000
sg9
I190
sa(dp390
g5
(F0.269
F0.458
F0.401
I370
I0
tp391
sg7
F6656.9154579639435
sg8
I1000
sg9
I191
sa(dp392
g5
(F0.311
F0.458
F0.419
I398
I0
tp393
sg7
F6688.281435966492
sg8
I1000
sg9
I192
sa(dp394
g5
(F0.263
F0.445
F0.418
I395
I1
tp395
sg7
F6725.440980911255
sg8
I1000
sg9
I193
sa(dp396
g5
(F0.29
F0.432
F0.433
I384
I0
tp397
sg7
F6759.161640882492
sg8
I1000
sg9
I194
sa(dp398
g5
(F0.298
F0.44
F0.422
I419
I1
tp399
sg7
F6793.936725854874
sg8
I1000
sg9
I195
sa(dp400
g5
(F0.28
F0.44
F0.412
I383
I0
tp401
sg7
F6833.938800811768
sg8
I1000
sg9
I196
sa(dp402
g5
(F0.281
F0.453
F0.4
I366
I0
tp403
sg7
F6866.181794881821
sg8
I1000
sg9
I197
sa(dp404
g5
(F0.301
F0.445
F0.41
I367
I0
tp405
sg7
F6896.115741968155
sg8
I1000
sg9
I198
sa(dp406
g5
(F0.292
F0.461
F0.377
I391
I0
tp407
sg7
F6926.435619831085
sg8
I1000
sg9
I199
sa(dp408
g5
(F0.31
F0.486
F0.388
I362
I0
tp409
sg7
F6962.5050048828125
sg8
I1000
sg9
I200
sa(dp410
g5
(F0.276
F0.447
F0.382
I384
I0
tp411
sg7
F6992.9905388355255
sg8
I1000
sg9
I201
sa(dp412
g5
(F0.301
F0.475
F0.394
I377
I0
tp413
sg7
F7030.512159824371
sg8
I1000
sg9
I202
sa(dp414
g5
(F0.281
F0.485
F0.373
I409
I0
tp415
sg7
F7061.478204011917
sg8
I1000
sg9
I203
sa(dp416
g5
(F0.298
F0.481
F0.392
I388
I0
tp417
sg7
F7101.111333847046
sg8
I1000
sg9
I204
sa(dp418
g5
(F0.277
F0.463
F0.387
I380
I0
tp419
sg7
F7134.052811861038
sg8
I1000
sg9
I205
sa(dp420
g5
(F0.285
F0.466
F0.387
I400
I0
tp421
sg7
F7171.238415956497
sg8
I1000
sg9
I206
sa(dp422
g5
(F0.295
F0.441
F0.377
I361
I0
tp423
sg7
F7211.874202013016
sg8
I1000
sg9
I207
sa(dp424
g5
(F0.285
F0.47
F0.385
I381
I0
tp425
sg7
F7243.005710840225
sg8
I1000
sg9
I208
sa(dp426
g5
(F0.299
F0.498
F0.385
I377
I1
tp427
sg7
F7276.350515842438
sg8
I1000
sg9
I209
sa(dp428
g5
(F0.351
F0.475
F0.387
I386
I2
tp429
sg7
F7308.3267188072205
sg8
I1000
sg9
I210
sa(dp430
g5
(F0.286
F0.468
F0.386
I360
I3
tp431
sg7
F7343.090284824371
sg8
I1000
sg9
I211
sa(dp432
g5
(F0.313
F0.444
F0.412
I379
I0
tp433
sg7
F7376.070719003677
sg8
I1000
sg9
I212
sa(dp434
g5
(F0.289
F0.468
F0.386
I366
I0
tp435
sg7
F7407.437339782715
sg8
I1000
sg9
I213
sa(dp436
g5
(F0.271
F0.444
F0.392
I414
I1
tp437
sg7
F7442.750277996063
sg8
I1000
sg9
I214
sa(dp438
g5
(F0.28
F0.465
F0.401
I412
I1
tp439
sg7
F7482.203431844711
sg8
I1000
sg9
I215
sa(dp440
g5
(F0.285
F0.446
F0.405
I391
I0
tp441
sg7
F7525.328408002853
sg8
I1000
sg9
I216
sa(dp442
g5
(F0.326
F0.454
F0.402
I427
I0
tp443
sg7
F7562.244382858276
sg8
I1000
sg9
I217
sa(dp444
g5
(F0.293
F0.432
F0.41
I411
I0
tp445
sg7
F7605.6831657886505
sg8
I1000
sg9
I218
sa(dp446
g5
(F0.301
F0.475
F0.407
I404
I0
tp447
sg7
F7646.33150100708
sg8
I1000
sg9
I219
sa(dp448
g5
(F0.294
F0.43
F0.413
I397
I0
tp449
sg7
F7686.037719964981
sg8
I1000
sg9
I220
sa(dp450
g5
(F0.291
F0.475
F0.394
I407
I0
tp451
sg7
F7720.016719818115
sg8
I1000
sg9
I221
sa(dp452
g5
(F0.287
F0.429
F0.404
I425
I0
tp453
sg7
F7756.272506952286
sg8
I1000
sg9
I222
sa(dp454
g5
(F0.3
F0.466
F0.408
I419
I0
tp455
sg7
F7796.747582912445
sg8
I1000
sg9
I223
sa(dp456
g5
(F0.306
F0.439
F0.362
I381
I0
tp457
sg7
F7840.106279850006
sg8
I1000
sg9
I224
sa(dp458
g5
(F0.307
F0.448
F0.407
I396
I0
tp459
sg7
F7876.729386806488
sg8
I1000
sg9
I225
sa(dp460
g5
(F0.309
F0.473
F0.408
I386
I0
tp461
sg7
F7912.727798938751
sg8
I1000
sg9
I226
sa(dp462
g5
(F0.318
F0.472
F0.42
I404
I0
tp463
sg7
F7945.704810857773
sg8
I1000
sg9
I227
sa(dp464
g5
(F0.283
F0.446
F0.409
I381
I0
tp465
sg7
F7981.9582188129425
sg8
I1000
sg9
I228
sa(dp466
g5
(F0.297
F0.481
F0.391
I383
I0
tp467
sg7
F8014.715798854828
sg8
I1000
sg9
I229
satp468
Rp469
(dp470
S'log_header'
p471
I01
sS'header'
p472
(S'gen'
p473
S'evals'
p474
S'hv|spread|igd|frontier#|valid#'
p475
S'timestamp'
p476
tp477
sS'columns_len'
p478
(lp479
I3
aI5
aI30
aI9
asS'buffindex'
p480
I230
sS'chapters'
p481
ccollections
defaultdict
p482
(g1
tp483
Rp484
sb.